 WaterSim_5

 Timestamp is 5acfae6e (Thu Apr 12 12:07:26 2018)

 Preferred load address is 00400000

 Start         Length     Name                   Class
 0001:00000000 004f7feeH .text                   CODE
 0002:00000000 00000144H .idata$5                DATA
 0002:00000150 0004f1d8H .rdata                  DATA
 0002:0004f328 00000028H .idata$2                DATA
 0002:0004f350 00000014H .idata$3                DATA
 0002:0004f364 00000144H .idata$4                DATA
 0002:0004f4a8 000005b6H .idata$6                DATA
 0002:0004fa60 000028d4H .edata                  DATA
 0003:00000000 00000004H .CRT$XCA                DATA
 0003:00000004 00000000H .CRT$XCU                DATA
 0003:00000004 00000004H .CRT$XCZ                DATA
 0003:00000008 00000004H .CRT$XIA                DATA
 0003:0000000c 00000008H .CRT$XIC                DATA
 0003:00000014 00000004H .CRT$XIZ                DATA
 0003:00000018 00000004H .CRT$XPA                DATA
 0003:0000001c 0000000cH .CRT$XPX                DATA
 0003:00000028 00000004H .CRT$XPZ                DATA
 0003:0000002c 00000004H .CRT$XTA                DATA
 0003:00000030 00000004H .CRT$XTZ                DATA
 0003:00000040 01efdd90H .data                   DATA
 0003:01efddd0 003d4ef8H .bss                    DATA

  Address         Publics by Value              Rva+Base     Lib:Object

 0001:00000000       _lm_agwaterbudgets_        00404000 f   Agriculture.obj
 0001:00000011       _lm_agwaterbudgets@_initag_ 00404011 f   Agriculture.obj
 0001:00000070       _lm_agwaterbudgets@_openfiles_ag_ 00404070 f   Agriculture.obj
 0001:00000204       _lm_agwaterbudgets@_readfiles_ag_ 00404204 f   Agriculture.obj
 0001:000008af       _lms_agwaterbudgets_       004048af f   Agriculture.obj
 0001:000008c0       _lms_agwaterbudgets@_agriculturedemand_ 004048c0 f   Agriculture.obj
 0001:00001405       _lms_agwaterbudgets@_agricultureproduction_ 00405405 f   Agriculture.obj
 0001:0000211a       _lms_agwaterbudgets@_agriculturalbudgets_ 0040611a f   Agriculture.obj
 0001:000025fa       _initializeagriculture_    004065fa f   Agriculture.obj
 0001:00004a88       _sagdemand_                00408a88 f   Agriculture.obj
 0001:00006f87       _sagprovider_              0040af87 f   Agriculture.obj
 0001:000094da       _sagproductionstatic_      0040d4da f   Agriculture.obj
 0001:0000b9bd       _saginitialize_water_      0040f9bd f   Agriculture.obj
 0001:0000e44f       _sagpumpingses_            0041244f f   Agriculture.obj
 0001:000111d9       _sagsurfaceses_            004151d9 f   Agriculture.obj
 0001:00013820       _lm_buildnotes_            00417820 f   BuildNotes.obj
 0001:00013831       _lm_buildnotes@_buildnumk_ 00417831 f   BuildNotes.obj
 0001:0001388a       _lm_buildnotes@_buildverk_ 0041788a f   BuildNotes.obj
 0001:000138e3       _lm_buildnotes@_buildsubverk_ 004178e3 f   BuildNotes.obj
 0001:0001393c       _lm_buildnotes@_monthk_    0041793c f   BuildNotes.obj
 0001:00013995       _lm_buildnotes@_dayk_      00417995 f   BuildNotes.obj
 0001:000139ee       _lm_buildnotes@_yeark_     004179ee f   BuildNotes.obj
 0001:00013a47       _lm_buildnotes@_hourk_     00417a47 f   BuildNotes.obj
 0001:00013aa0       _lm_buildnotes@_mink_      00417aa0 f   BuildNotes.obj
 0001:00013b00       _pstartup_k_               00417b00 f   Demand.obj
 0001:00015f52       _sdemandwrap_              00419f52 f   Demand.obj
 0001:00018e9c       _soutdooraccounting_       0041ce9c f   Demand.obj
 0001:0001ba97       _pgraywater_               0041fa97 f   Demand.obj
 0001:0001e309       _pstormwaterharvest_       00422309 f   Demand.obj
 0001:00020b7b       _prainwaterharvest_        00424b7b f   Demand.obj
 0001:000233ed       _pwaterbanking_k_          004273ed f   Demand.obj
 0001:000262ab       _pwaterfordirectinject_s_  0042a2ab f   Demand.obj
 0001:00029aad       _pwaterreclaimed_s_        0042daad f   Demand.obj
 0001:0002cf4a       _prowaterreclaimed_s_      00430f4a f   Demand.obj
 0001:0002fa1a       _pwaterforvadose_s_        00433a1a f   Demand.obj
 0001:000335ae       _pnewwatersupplies_k_      004375ae f   Demand.obj
 0001:00036323       _pcleanup_k_               0043a323 f   Demand.obj
 0001:00038895       _punusednonpotable_        0043c895 f   Demand.obj
 0001:0003afb4       _scwaccounting_            0043efb4 f   Demand.obj
 0001:0003dee0       _soptimize_                00441ee0 f   Demand.obj
 0001:00040f41       _soptimize_off_            00444f41 f   Demand.obj
 0001:00043aef       _son_inrounding_           00447aef f   Demand.obj
 0001:000462e8       _son_outrounding_          0044a2e8 f   Demand.obj
 0001:00048ae1       _son_rounding_             0044cae1 f   Demand.obj
 0001:0004b548       _soff_rounding_            0044f548 f   Demand.obj
 0001:0004dfb7       _scwaccountingindoorout_   00451fb7 f   Demand.obj
 0001:00053450       _lm_designationsdaily_a_   00457450 f   DesignationsDaily.obj
 0001:00053461       _lm_designationsdaily_a@_initadesignationsdaily_ 00457461 f   DesignationsDaily.obj
 0001:000534c0       _lm_designationsdaily_a@_openfiles_adesignationsd_ 004574c0 f   DesignationsDaily.obj
 0001:000536f2       _lm_designationsdaily_a@_readfiles_adesignationsd_ 004576f2 f   DesignationsDaily.obj
 0001:00053d58       _lms_designationsdaily_a_  00457d58 f   DesignationsDaily.obj
 0001:00053d69       _lms_designationsdaily_a@_extract_ 00457d69 f   DesignationsDaily.obj
 0001:00054110       _lms_designationsdaily_a@_flow_ 00458110 f   DesignationsDaily.obj
 0001:00054300       _lms_designationsdaily_a@_fmodflowsvtdaily_ 00458300 f   DesignationsDaily.obj
 0001:00054418       _lms_designationsdaily_a@_designations_ 00458418 f   DesignationsDaily.obj
 0001:00055bf5       _lms_designationsdaily_a@_leapyear_ 00459bf5 f   DesignationsDaily.obj
 0001:00055db7       _initializedailydesig_     00459db7 f   DesignationsDaily.obj
 0001:0005820f       _extractdaily_             0045c20f f   DesignationsDaily.obj
 0001:0005a6e0       _lm_designations_b_        0045e6e0 f   Designations_CO.obj
 0001:0005a6f1       _lm_designations_b@_initbdesignations_ 0045e6f1 f   Designations_CO.obj
 0001:0005a762       _lm_designations_b@_openfiles_bdesignations_ 0045e762 f   Designations_CO.obj
 0001:0005a966       _lm_designations_b@_readparms_pvd_ 0045e966 f   Designations_CO.obj
 0001:0005ad56       _lm_designations_b@_readfiles_bdesignations_ 0045ed56 f   Designations_CO.obj
 0001:0005b123       _lms_designations_b_       0045f123 f   Designations_CO.obj
 0001:0005b134       _lms_designations_b@_apartition_b_ 0045f134 f   Designations_CO.obj
 0001:0005c34f       _lms_designations_b@_aallocate_b_ 0046034f f   Designations_CO.obj
 0001:0005c530       _lms_designations_b@_maxcapdesignations_ 00460530 f   Designations_CO.obj
 0001:0005c86b       _lms_designations_b@_capneeded_ 0046086b f   Designations_CO.obj
 0001:0005cb19       _lms_designations_b@_reductionsindesignations_ 00460b19 f   Designations_CO.obj
 0001:0005f9db       _lms_designations_b@_capout_ 004639db f   Designations_CO.obj
 0001:000601e9       _lms_designations_b@_waterbank_ 004641e9 f   Designations_CO.obj
 0001:000604f5       _lms_designations_b@_capprioritywater_ 004644f5 f   Designations_CO.obj
 0001:00060618       _lms_designations_b@_deltacapwater_ 00464618 f   Designations_CO.obj
 0001:000607ba       _lms_designations_b@_coriverdeltawater_ 004647ba f   Designations_CO.obj
 0001:00060e3c       _lms_designations_b@_atypeconvert_ 00464e3c f   Designations_CO.obj
 0001:00061069       _initializecoloradodesig_  00465069 f   Designations_CO.obj
 0001:000634c1       _pcap_water_               004674c1 f   Designations_CO.obj
 0001:00065cb0       _lm_designations_a_        00469cb0 f   Designations_STV.obj
 0001:00065cc1       _lm_designations_a@_initadesignations_ 00469cc1 f   Designations_STV.obj
 0001:00065d20       _lm_designations_a@_openfiles_adesignations_ 00469d20 f   Designations_STV.obj
 0001:00065f94       _lm_designations_a@_readfiles_adesignations_ 00469f94 f   Designations_STV.obj
 0001:000666f5       _lms_designations_a_       0046a6f5 f   Designations_STV.obj
 0001:00066706       _lms_designations_a@_aclear_ 0046a706 f   Designations_STV.obj
 0001:0006686c       _lms_designations_a@_adesignations_classbcmax_a_ 0046a86c f   Designations_STV.obj
 0001:00066c94       _lms_designations_a@_adesignations_classbc_storage_ 0046ac94 f   Designations_STV.obj
 0001:000678fd       _initializestvdesignations_ 0046b8fd f   Designations_STV.obj
 0001:00069d55       _adesignationsclassbcmax_  0046dd55 f   Designations_STV.obj
 0001:0006c220       _dsalttontoverde_          00470220 f   Designations_STV.obj
 0001:0006e74d       _sbookkeeping_             0047274d f   Designations_STV.obj
 0001:00070c75       _classadesignations_a_     00474c75 f   Designations_STV.obj
 0001:00073177       _ssrp_classbc_             00477177 f   Designations_STV.obj
 0001:00076b10       _lms_climatefactor_        0047ab10 f   Functions.obj
 0001:00076b21       _lms_climatefactor@_fclimatefactorco_ 0047ab21 f   Functions.obj
 0001:00076de4       _lms_climatefactor@_fclimatefactorsvt_ 0047ade4 f   Functions.obj
 0001:000770a7       _lms_climatefactor@_flinear_ 0047b0a7 f   Functions.obj
 0001:00077195       _lms_climatefactor@_climateparms_ 0047b195 f   Functions.obj
 0001:000772f1       _lms_climatefactor@_slope_ 0047b2f1 f   Functions.obj
 0001:00077473       _lms_climatefactor@_intercept_ 0047b473 f   Functions.obj
 0001:000775ec       _lms_agricultureretirement_ 0047b5ec f   Functions.obj
 0001:000775fd       _lms_agricultureretirement@_fagretirementfactor_ 0047b5fd f   Functions.obj
 0001:000778e8       _lms_agricultureretirement@_agricparms_ 0047b8e8 f   Functions.obj
 0001:00077a44       _lms_agricultureretirement@_slope_ 0047ba44 f   Functions.obj
 0001:00077bc6       _lms_agricultureretirement@_intercept_ 0047bbc6 f   Functions.obj
 0001:00077d41       _lms_agricultureretirement@_flinear_ 0047bd41 f   Functions.obj
 0001:00077e2f       _fvariablefactorx_         0047be2f f   Functions.obj
 0001:00077ef4       _agretirement_             0047bef4 f   Functions.obj
 0001:0007a465       _climatefactorco_          0047e465 f   Functions.obj
 0001:0007c97b       _climatefactorsvt_         0048097b f   Functions.obj
 0001:0007ee91       _fround_                   00482e91 f   Functions.obj
 0001:0007f042       _feffectivegpcd_           00483042 f   Functions.obj
 0001:0007f12d       _fincrementfloat_          0048312d f   Functions.obj
 0001:0007f1bf       _fincrementdouble_         004831bf f   Functions.obj
 0001:0007f251       _fstoragerelease_          00483251 f   Functions.obj
 0001:0007f497       _fmodifynormalflow_        00483497 f   Functions.obj
 0001:0007f579       _fmodifytrottnormalflow_   00483579 f   Functions.obj
 0001:0007f650       _fstates_                  00483650 f   Functions.obj
 0001:0007f8f0       _flogicaltointeger_        004838f0 f   Functions.obj
 0001:0007f994       _fdconvert_                00483994 f   Functions.obj
 0001:0007fa9c       _froundtoaf_               00483a9c f   Functions.obj
 0001:0007fb57       _fsesgpcd_alpha_           00483b57 f   Functions.obj
 0001:0008086b       _fminmaxalpha_             0048486b f   Functions.obj
 0001:00080926       _fsesgpcd_gamma_           00484926 f   Functions.obj
 0001:0008128d       _fsesgpcd_discount_        0048528d f   Functions.obj
 0001:0008146c       _fsesgpcd_equalweight_     0048546c f   Functions.obj
 0001:00081604       _fgamma_                   00485604 f   Functions.obj
 0001:00081700       _fsesgpcd_increase_        00485700 f   Functions.obj
 0001:000819af       _fevaporation_             004859af f   Functions.obj
 0001:00081aa1       _fevaporationmonthly_      00485aa1 f   Functions.obj
 0001:00081b59       _fevaporation_reach_       00485b59 f   Functions.obj
 0001:00081bfa       _fbankstoragereach_        00485bfa f   Functions.obj
 0001:00081c8a       _fevaporation_powell_      00485c8a f   Functions.obj
 0001:00081e35       _fevaporation_mead_        00485e35 f   Functions.obj
 0001:00081fe0       _fhorsepowercap_           00485fe0 f   Functions.obj
 0001:0008210c       _fkilowatthrsfromhp_       0048610c f   Functions.obj
 0001:000821d9       _fcftstoacftperannum_      004861d9 f   Functions.obj
 0001:000822ab       _facftperannumtocfts_      004862ab f   Functions.obj
 0001:0008237f       _fleapyear_                0048637f f   Functions.obj
 0001:0008253d       _fmonthsfromdoy_           0048653d f   Functions.obj
 0001:00083011       _fstverdereservoirf_       00487011 f   Functions.obj
 0001:000830e8       _fses_alpha_               004870e8 f   Functions.obj
 0001:00083c99       _fses_discount_            00487c99 f   Functions.obj
 0001:00083e6c       _fdemandfrompopgpcd_       00487e6c f   Functions.obj
 0001:00083f2b       _fcreatetarget_            00487f2b f   Functions.obj
 0001:00084032       _fhyperbola_               00488032 f   Functions.obj
 0001:0008422e       _fhyperbolarunoff_         0048822e f   Functions.obj
 0001:00084343       _fhyperbollclustatic_      00488343 f   Functions.obj
 0001:00084403       _flogistic_                00488403 f   Functions.obj
 0001:00084690       _finverselogistic_         00488690 f   Functions.obj
 0001:00084924       _flogisticlclustatic_      00488924 f   Functions.obj
 0001:000849e7       _fsumlcludemand_           004889e7 f   Functions.obj
 0001:00084be8       _flcluefficiencies_        00488be8 f   Functions.obj
 0001:00084d10       _gm_globaldata_            00488d10 f   Global.obj
 0001:00084d17       _gm_versioncontrol_        00488d17 f   Global.obj
 0001:00084d1e       _gm_modelcontrol_          00488d1e f   Global.obj
 0001:00084d25       _gm_exception_             00488d25 f   Global.obj
 0001:00084d30       _int2charact_              00488d30 f   GlobalSubroutines.obj
 0001:00084def       _sdatetimebuild_           00488def f   GlobalSubroutines.obj
 0001:0008588f       _openfiles_                0048988f f   GlobalSubroutines.obj
 0001:00085f83       _serrorcodes_              00489f83 f   GlobalSubroutines.obj
 0001:00086198       _daysintheyear_            0048a198 f   GlobalSubroutines.obj
 0001:0008632d       _scomparecontrol_          0048a32d f   GlobalSubroutines.obj
 0001:0008647d       _seightypercentcap_        0048a47d f   GlobalSubroutines.obj
 0001:00086778       _seightypercentsrp_        0048a778 f   GlobalSubroutines.obj
 0001:00086898       _seightypercent_           0048a898 f   GlobalSubroutines.obj
 0001:00086cd1       _saggroundwater_           0048acd1 f   GlobalSubroutines.obj
 0001:0008ae8e       _sagsurfacewaterother_     0048ee8e f   GlobalSubroutines.obj
 0001:0008fce9       _spopulationmask_          00493ce9 f   GlobalSubroutines.obj
 0001:000924d7       _scapmaskcredits_          004964d7 f   GlobalSubroutines.obj
 0001:00094a54       _sesrunningt_              00498a54 f   GlobalSubroutines.obj
 0001:00095115       _gpcd_eight_               00499115 f   GlobalSubroutines.obj
 0001:00097cb6       _gpcd_                     0049bcb6 f   GlobalSubroutines.obj
 0001:00098390       _smasksrp_                 0049c390 f   GlobalSubroutines.obj
 0001:000988cd       _smask_                    0049c8cd f   GlobalSubroutines.obj
 0001:00098b6f       _smaskcap_                 0049cb6f f   GlobalSubroutines.obj
 0001:00099330       _smasksrog_                0049d330 f   GlobalSubroutines.obj
 0001:000996c2       _smaskagriculture_         0049d6c2 f   GlobalSubroutines.obj
 0001:0009bc9e       _snewmaskagriculture_      0049fc9e f   GlobalSubroutines.obj
 0001:0009bff6       _agacerageandcredits_      0049fff6 f   GlobalSubroutines.obj
 0001:0009f5f6       _agacerageandcreditscap_   004a35f6 f   GlobalSubroutines.obj
 0001:000a20ae       _sproviders_               004a60ae f   GlobalSubroutines.obj
 0001:000a28c7       _smodifynormalflow_        004a68c7 f   GlobalSubroutines.obj
 0001:000a2da0       _lms_gpcddemand_           004a6da0 f   GPCDdemand.obj
 0001:000a2db1       _lms_gpcddemand@_mysub_    004a6db1 f   GPCDdemand.obj
 0001:000a386f       _lms_gpcddemand@_fcalcindoor_ 004a786f f   GPCDdemand.obj
 0001:000a3b2b       _lms_gpcddemand@_fcalcoutdoor_ 004a7b2b f   GPCDdemand.obj
 0001:000a3d59       _gpcdfrommetrics_          004a7d59 f   GPCDdemand.obj
 0001:000a6230       _lm_groundwater_a_         004aa230 f   Groundwater.obj
 0001:000a6241       _lm_groundwater_a@_initgw_ 004aa241 f   Groundwater.obj
 0001:000a62c4       _lm_groundwater_a@_openfiles_g_ 004aa2c4 f   Groundwater.obj
 0001:000a64c8       _lm_groundwater_a@_readfiles_g_ 004aa4c8 f   Groundwater.obj
 0001:000a6b60       _lm_groundwater_a@_readparms_g_ 004aab60 f   Groundwater.obj
 0001:000a6d2e       _lm_groundwater_a@_initialstate_g_ 004aad2e f   Groundwater.obj
 0001:000a6da8       _lms_groundwater_a_        004aada8 f   Groundwater.obj
 0001:000a6db9       _lms_groundwater_a@_initstate_g_ 004aadb9 f   Groundwater.obj
 0001:000a6e4e       _lms_groundwater_a@_deltastate_g_ 004aae4e f   Groundwater.obj
 0001:000a735c       _lms_groundwater_a@_outinitialg_ 004ab35c f   Groundwater.obj
 0001:000a73f6       _initializegwaterdata_     004ab3f6 f   Groundwater.obj
 0001:000a984e       _sinitialgroundwater_      004ad84e f   Groundwater.obj
 0001:000abcc5       _pprovidergroundwater_     004afcc5 f   Groundwater.obj
 0001:000af93d       _pproviderdefaultgroundwater_ 004b393d f   Groundwater.obj
 0001:000b2096       _modflowgroundwater_       004b6096 f   Groundwater.obj
 0001:000b2770       _lm_kernel_                004b6770 f   Kernel.obj
 0001:000b2781       _lm_kernel@_runoneyearkernel_ 004b6781 f   Kernel.obj
 0001:000b2ab9       _lm_kernel@_runmanyyearkernel_ 004b6ab9 f   Kernel.obj
 0001:000b2af4       _lm_kernel@_skernalcode_   004b6af4 f   Kernel.obj
 0001:000b3367       _lm_kernel@_upstreamk_     004b7367 f   Kernel.obj
 0001:000b3a20       _lm_kernel@_datetime_      004b7a20 f   Kernel.obj
 0001:000b3b0a       _lm_kernel@_downstreamk_   004b7b0a f   Kernel.obj
 0001:000b3e72       _lm_kernel@_int2char_      004b7e72 f   Kernel.obj
 0001:000b3f3f       _lm_kernel@_startupk_      004b7f3f f   Kernel.obj
 0001:000b4e63       _lm_kernel@_readfilescheckk_ 004b8e63 f   Kernel.obj
 0001:000b51c8       _lm_kernel@_teardownk_     004b91c8 f   Kernel.obj
 0001:000b53d9       _lm_kernel@_testing_       004b93d9 f   Kernel.obj
 0001:000b5420       _lm_initialize_            004b9420 f   Kernel.obj
 0001:000b5431       _lm_initialize@_initk_     004b9431 f   Kernel.obj
 0001:000b55a2       _lm_initialize@_global_    004b95a2 f   Kernel.obj
 0001:000b5617       _daysintheyeark_           004b9617 f   Kernel.obj
 0001:000b57ac       _lm_start_                 004b97ac f   Kernel.obj
 0001:000b57bd       _lm_start@_openfilesk_     004b97bd f   Kernel.obj
 0001:000b580a       _lm_start@_errorcheckreadk_ 004b980a f   Kernel.obj
 0001:000b5857       _lm_terminate_             004b9857 f   Kernel.obj
 0001:000b5868       _lm_terminate@_closefilesk_ 004b9868 f   Kernel.obj
 0001:000b58b5       _test_                     004b98b5 f   Kernel.obj
 0001:000b58f8       _outputpath_               004b98f8 f   Kernel.obj
 0001:000b7f00       _SetStringData_            004bbf00 f   KernelInterface.obj
 0001:000ba4a3       _SetStringOutput_          004be4a3 f   KernelInterface.obj
 0001:000bca46       _BuildNum_                 004c0a46 f   KernelInterface.obj
 0001:000bcb2d       _BuildVer_                 004c0b2d f   KernelInterface.obj
 0001:000bcc14       _BuildSubVer_              004c0c14 f   KernelInterface.obj
 0001:000bccfb       _TestMonth_                004c0cfb f   KernelInterface.obj
 0001:000bcde1       _TestDay_                  004c0de1 f   KernelInterface.obj
 0001:000bcec8       _TestYear_                 004c0ec8 f   KernelInterface.obj
 0001:000bcfaf       _TestHour_                 004c0faf f   KernelInterface.obj
 0001:000bd096       _TestMin_                  004c1096 f   KernelInterface.obj
 0001:000bd17d       _Init_                     004c117d f   KernelInterface.obj
 0001:000bf5f5       _getStatus_                004c35f5 f   KernelInterface.obj
 0001:000bf73a       _RunOneYear_               004c373a f   KernelInterface.obj
 0001:000c1c02       _RunManyYears_             004c5c02 f   KernelInterface.obj
 0001:000c40ca       _OpenFiles_                004c80ca f   KernelInterface.obj
 0001:000c6592       _ReadFilesErr_             004ca592 f   KernelInterface.obj
 0001:000c8a5a       _getReadFileError_         004cca5a f   KernelInterface.obj
 0001:000caf3b       _CloseFiles_               004cef3b f   KernelInterface.obj
 0001:000cd403       _getStartSimulation_       004d1403 f   KernelInterface.obj
 0001:000cf8e0       _setStartSimulation_       004d38e0 f   KernelInterface.obj
 0001:000d1dc6       _getEndSimulation_         004d5dc6 f   KernelInterface.obj
 0001:000d42a3       _setEndSimulation_         004d82a3 f   KernelInterface.obj
 0001:000d6789       _getWriteStatus_           004da789 f   KernelInterface.obj
 0001:000d8c6a       _setWriteStatus_           004dcc6a f   KernelInterface.obj
 0001:000db133       _getWriteLog_              004df133 f   KernelInterface.obj
 0001:000dd614       _setWriteLog_              004e1614 f   KernelInterface.obj
 0001:000dfadd       _getErrorCode_             004e3add f   KernelInterface.obj
 0001:000e1fbe       _getAPIcode_               004e5fbe f   KernelInterface.obj
 0001:000e444f       _setAPIcode_               004e844f f   KernelInterface.obj
 0001:000e68e9       _setBaseYear_              004ea8e9 f   KernelInterface.obj
 0001:000e8db3       _getClimateFactorEndYear_  004ecdb3 f   KernelInterface.obj
 0001:000eb240       _setClimateFactorEndYear_  004ef240 f   KernelInterface.obj
 0001:000ed70a       _getModifyNormalFlow_      004f170a f   KernelInterface.obj
 0001:000efd14       _setModifyNormalFlow_      004f3d14 f   KernelInterface.obj
 0001:000f25c0       _getSTVtrace_              004f65c0 f   KernelInterface.obj
 0001:000f4ab7       _setSVTtrace_              004f8ab7 f   KernelInterface.obj
 0001:000f6feb       _getSVTHistData_           004fafeb f   KernelInterface.obj
 0001:000f94e0       _setSVTHistData_           004fd4e0 f   KernelInterface.obj
 0001:000fba14       _getSVHistExtractionStartYear_ 004ffa14 f   KernelInterface.obj
 0001:000fdf0b       _setSVHistExtractionStartYear_ 00501f0b f   KernelInterface.obj
 0001:0010040b       _getSVClimateAdjustmentPercent_ 0050440b f   KernelInterface.obj
 0001:00102922       _setSVClimateAdjustmentPercent_ 00506922 f   KernelInterface.obj
 0001:00104e30       _getSVUserAdjustmentStartYear_ 00508e30 f   KernelInterface.obj
 0001:00107327       _setSVUserAdjustmentStartYear_ 0050b327 f   KernelInterface.obj
 0001:0010985b       _getSVUserAdjustmentStopYear_ 0050d85b f   KernelInterface.obj
 0001:0010bd52       _setSVUserAdjustmentStopYear_ 0050fd52 f   KernelInterface.obj
 0001:0010e252       _getSVUserAdjustmentPercent_ 00512252 f   KernelInterface.obj
 0001:00110765       _setSVUserAdjustmentPercent_ 00514765 f   KernelInterface.obj
 0001:00112c73       _setCOtrace_               00516c73 f   KernelInterface.obj
 0001:00115293       _getCOHistData_            00519293 f   KernelInterface.obj
 0001:00117876       _setCOHistData_            0051b876 f   KernelInterface.obj
 0001:00119e96       _getCOHistExtractionStartYear_ 0051de96 f   KernelInterface.obj
 0001:0011c479       _setCOHistExtractionStartYear_ 00520479 f   KernelInterface.obj
 0001:0011ea99       _getCOClimateAdjustmentPercent_ 00522a99 f   KernelInterface.obj
 0001:0012109c       _setCOClimateAdjustmentPercent_ 0052509c f   KernelInterface.obj
 0001:00123696       _getCOUserAdjustmentStartYear_ 00527696 f   KernelInterface.obj
 0001:00125c79       _setCOUserAdjustmentStartYear_ 00529c79 f   KernelInterface.obj
 0001:00128299       _getCOUserAdjustmentStopYear_ 0052c299 f   KernelInterface.obj
 0001:0012a87c       _setCOUserAdjustmentStopYear_ 0052e87c f   KernelInterface.obj
 0001:0012ce68       _getCOUserAdjustmentPercent_ 00530e68 f   KernelInterface.obj
 0001:0012f467       _setCOUserAdjustmentPercent_ 00533467 f   KernelInterface.obj
 0001:00131a61       _setWaterToCOdelta_        00535a61 f   KernelInterface.obj
 0001:00133f94       _setCODeltaBurden_         00537f94 f   KernelInterface.obj
 0001:001364c9       _getRatioCOdeltaBurden_    0053a4c9 f   KernelInterface.obj
 0001:001389c0       _getAZshareCOdeltaWater_   0053c9c0 f   KernelInterface.obj
 0001:0013aeb7       _getCAshareCOdeltaWater_   0053eeb7 f   KernelInterface.obj
 0001:0013d49a       _getNVshareCOdeltaWater_   0054149a f   KernelInterface.obj
 0001:0013fa7d       _getMXshareCOdeltaWater_   00543a7d f   KernelInterface.obj
 0001:00142060       _getNaturalRechargeSwitch_ 00546060 f   KernelInterface.obj
 0001:001444ed       _setNaturalRechargeSwitch_ 005484ed f   KernelInterface.obj
 0001:00146983       _getSVDelivery_            0054a983 f   KernelInterface.obj
 0001:00148e10       _getSVRiverFlow_           0054ce10 f   KernelInterface.obj
 0001:0014b307       _getSVStorage_             0054f307 f   KernelInterface.obj
 0001:0014d7fe       _getSVTspillage_           005517fe f   KernelInterface.obj
 0001:0014fc8b       _getVerdeFlow_             00553c8b f   KernelInterface.obj
 0001:00152118       _getVerdeStorage_          00556118 f   KernelInterface.obj
 0001:001545a5       _getVerdeClassAused_acft_  005585a5 f   KernelInterface.obj
 0001:00156a32       _getverdeclassbcused_acft_ 0055aa32 f   KernelInterface.obj
 0001:00158e9f       _getSaltTontoFlow_         0055ce9f f   KernelInterface.obj
 0001:0015b432       _getSaltTontoStorage_      0055f432 f   KernelInterface.obj
 0001:0015d9c5       _getOtherSaltStorage_      005619c5 f   KernelInterface.obj
 0001:0015ff58       _getRooseveltStorage_      00563f58 f   KernelInterface.obj
 0001:001624eb       _getSaltTontoClassAused_acft_ 005664eb f   KernelInterface.obj
 0001:00164a7e       _getSaltTontoClassBCused_acft_ 00568a7e f   KernelInterface.obj
 0001:00167011       _getAZshareCO_             0056b011 f   KernelInterface.obj
 0001:001695f4       _getCAP_                   0056d5f4 f   KernelInterface.obj
 0001:0016bbd7       _getPowellElevation_       0056fbd7 f   KernelInterface.obj
 0001:0016e1ba       _getMeadElevation_         005721ba f   KernelInterface.obj
 0001:0017079d       _getUpperBasinDeliveries_  0057479d f   KernelInterface.obj
 0001:00172d80       _setUpperBasinDeliveriesIndex_ 00576d80 f   KernelInterface.obj
 0001:001753a7       _getCODelivery_            005793a7 f   KernelInterface.obj
 0001:00177834       _getCORiverFlow_           0057b834 f   KernelInterface.obj
 0001:00179e17       _getCOStorage_             0057de17 f   KernelInterface.obj
 0001:0017c3fa       _getPowellStorage_         005803fa f   KernelInterface.obj
 0001:0017e9dd       _getMeadStorage_           005829dd f   KernelInterface.obj
 0001:00180fc0       _setAgPumpingCurve_        00584fc0 f   KernelInterface.obj
 0001:0018348a       _setAgCreditTransferPCT_   0058748a f   KernelInterface.obj
 0001:00185954       _setProviderAgCreditCurvePCT_ 00589954 f   KernelInterface.obj
 0001:001881ec       _getWaterFromAgPumping_    0058c1ec f   KernelInterface.obj
 0001:0018a828       _setWaterFromAgPumping_    0058e828 f   KernelInterface.obj
 0001:0018d0cd       _setWaterToAgricultureAF_  005910cd f   KernelInterface.obj
 0001:0018f961       _getWaterToAgricultureAF_  00593961 f   KernelInterface.obj
 0001:00191f4d       _getWaterFromAgPumpingMax_ 00595f4d f   KernelInterface.obj
 0001:00194589       _getWaterFromAgSurface_    00598589 f   KernelInterface.obj
 0001:00196ccb       _setWaterFromAgSurface_    0059accb f   KernelInterface.obj
 0001:001996b5       _getWaterFromAgSurfaceMax_ 0059d6b5 f   KernelInterface.obj
 0001:0019bdf7       _getGrossAgricultureWaterAF_ 0059fdf7 f   KernelInterface.obj
 0001:0019e3e3       _getNetAgricultureWaterAF_ 005a23e3 f   KernelInterface.obj
 0001:001a09cf       _getAgProductionPCT_       005a49cf f   KernelInterface.obj
 0001:001a2eac       _getAgCreditTransPCT_      005a6eac f   KernelInterface.obj
 0001:001a54e8       _getProviderMaxAgPumping_  005a94e8 f   KernelInterface.obj
 0001:001a7ad4       _getProviderMaxAgSurface_  005abad4 f   KernelInterface.obj
 0001:001aa0c0       _geteightyPctRule_         005ae0c0 f   KernelInterface.obj
 0001:001ac6ac       _getPopGrowthRateAdjustPct_ 005b06ac f   KernelInterface.obj
 0001:001aed20       _setPopGrowthRateAdjustPct_ 005b2d20 f   KernelInterface.obj
 0001:001b1627       _getPopGrowthRateOnProjectPct_ 005b5627 f   KernelInterface.obj
 0001:001b3c9b       _setPopGrowthRateOnProjectPct_ 005b7c9b f   KernelInterface.obj
 0001:001b65a2       _getPopGrowthRateOtherPct_ 005ba5a2 f   KernelInterface.obj
 0001:001b8c16       _setPopGrowthRateOtherPct_ 005bcc16 f   KernelInterface.obj
 0001:001bb51d       _PopulationOnProject_      005bf51d f   KernelInterface.obj
 0001:001bdb73       _PopulationOther_          005c1b73 f   KernelInterface.obj
 0001:001c01c9       _getTotalDemands_          005c41c9 f   KernelInterface.obj
 0001:001c281f       _getPopulations_           005c681f f   KernelInterface.obj
 0001:001c4e75       _getPopGrowthRate_         005c8e75 f   KernelInterface.obj
 0001:001c74cb       _setPopulationsOn_         005cb4cb f   KernelInterface.obj
 0001:001c9dc9       _setPopulationsOther_      005cddc9 f   KernelInterface.obj
 0001:001cc6c7       _getProviderDeliveriesUsed_ 005d06c7 f   KernelInterface.obj
 0001:001ced1d       _getCOAnnualDeliveries_    005d2d1d f   KernelInterface.obj
 0001:001d1373       _getCAPMandI_              005d5373 f   KernelInterface.obj
 0001:001d386a       _getCOMaxDeliveries_       005d786a f   KernelInterface.obj
 0001:001d5ec0       _getSRPAnnualDeliveries_   005d9ec0 f   KernelInterface.obj
 0001:001d8516       _getSVMaxDeliveriesSRP_    005dc516 f   KernelInterface.obj
 0001:001dab6c       _getSVClassADesignations_  005deb6c f   KernelInterface.obj
 0001:001dd1c2       _getSVClassBCDesignations_ 005e11c2 f   KernelInterface.obj
 0001:001df818       _getSVClassBCmax_          005e3818 f   KernelInterface.obj
 0001:001e1e6e       _getSVTclassBCstorage_     005e5e6e f   KernelInterface.obj
 0001:001e44c4       _getSVTclassBCstorageMax_  005e84c4 f   KernelInterface.obj
 0001:001e6b1a       _getSTClassAwaterUsed_     005eab1a f   KernelInterface.obj
 0001:001e90ad       _getSaltTontoClassBCwaterUsed_ 005ed0ad f   KernelInterface.obj
 0001:001eb640       _getVerdeClassAwaterUsed_  005ef640 f   KernelInterface.obj
 0001:001edacd       _getVerdeClassBCwaterUsed_ 005f1acd f   KernelInterface.obj
 0001:001eff5a       _getProviderGWDesignations_ 005f3f5a f   KernelInterface.obj
 0001:001f25b0       _setProviderAnnualCredits_ 005f65b0 f   KernelInterface.obj
 0001:001f4e3f       _getProviderGWstored_      005f8e3f f   KernelInterface.obj
 0001:001f749a       _getProviderSWDesignations_ 005fb49a f   KernelInterface.obj
 0001:001f9af0       _getAnnualProviderGroundW_ 005fdaf0 f   KernelInterface.obj
 0001:001fc1fc       _setProviderGroundWater_   006001fc f   KernelInterface.obj
 0001:001fea85       _getProviderGWPumpageMuni_ 00602a85 f   KernelInterface.obj
 0001:002010db       _getProviderGWPumpageSRP_  006050db f   KernelInterface.obj
 0001:00203731       _getProviderGWRecharge_    00607731 f   KernelInterface.obj
 0001:00205d87       _setAlterGPCDPct_          00609d87 f   KernelInterface.obj
 0001:00208291       _getProviderAlterGPCDPct_  0060c291 f   KernelInterface.obj
 0001:0020a8e7       _setProviderAlterGPCDPct_  0060e8e7 f   KernelInterface.obj
 0001:0020d1f6       _setProviderMinGPCD_       006111f6 f   KernelInterface.obj
 0001:0020f9c9       _getProviderMinGPCD_       006139c9 f   KernelInterface.obj
 0001:0021201f       _setDemandOption_          0061601f f   KernelInterface.obj
 0001:0021451f       _getDemandOption_          0061851f f   KernelInterface.obj
 0001:00216a16       _getWaterBankingOption_    0061aa16 f   KernelInterface.obj
 0001:0021906c       _setWaterBankingOption_    0061d06c f   KernelInterface.obj
 0001:0021b8f5       _setDemandPercent_         0061f8f5 f   KernelInterface.obj
 0001:0021de00       _getDemandPercent_         00621e00 f   KernelInterface.obj
 0001:002202f7       _getDemandMultiplier_      006242f7 f   KernelInterface.obj
 0001:00222807       _getOnProjectDemand_       00626807 f   KernelInterface.obj
 0001:00224e5d       _getOffProjectDemand_      00628e5d f   KernelInterface.obj
 0001:002274b3       _getTimeLagVadoseYears_    0062b4b3 f   KernelInterface.obj
 0001:00229bbf       _setTimeLagVadoseYears_    0062dbbf f   KernelInterface.obj
 0001:0022c58e       _getParmReclaimedToVadosePct_ 0063058e f   KernelInterface.obj
 0001:0022ecb8       _setParmReclaimedToVadosePct_ 00632cb8 f   KernelInterface.obj
 0001:00231555       _getParmReclaimedToDirectInjPct_ 00635555 f   KernelInterface.obj
 0001:00233c7f       _setParmReclaimedToDirectInjPct_ 00637c7f f   KernelInterface.obj
 0001:0023651c       _getParmReclaimedToOutputPct_ 0063a51c f   KernelInterface.obj
 0001:00238c46       _setParmReclaimedToOutputPct_ 0063cc46 f   KernelInterface.obj
 0001:0023b51d       _getParmReclaimedToInputPct_ 0063f51d f   KernelInterface.obj
 0001:0023dc47       _setParmReclaimedToInputPct_ 00641c47 f   KernelInterface.obj
 0001:0024051e       _getReclaimedOutdoorUse_   0064451e f   KernelInterface.obj
 0001:00242c48       _setReclaimedOutdoorUse_   00646c48 f   KernelInterface.obj
 0001:0024551f       _getParmRWWToROPct_        0064951f f   KernelInterface.obj
 0001:00247c49       _setParmRWWToROPct_        0064bc49 f   KernelInterface.obj
 0001:0024a4e6       _getParmROToOutputPct_     0064e4e6 f   KernelInterface.obj
 0001:0024cc10       _setParmROToOutputPct_     00650c10 f   KernelInterface.obj
 0001:0024f4e7       _getParmOutDoorResPct_     006534e7 f   KernelInterface.obj
 0001:00251c11       _setParmOutDoorResPct_     00655c11 f   KernelInterface.obj
 0001:002544e8       _getParmOutDoorComPct_     006584e8 f   KernelInterface.obj
 0001:00256c12       _setParmOutDoorComPct_     0065ac12 f   KernelInterface.obj
 0001:002594e9       _getParmOutDoorIndPct_     0065d4e9 f   KernelInterface.obj
 0001:0025bc13       _setParmOutDoorIndPct_     0065fc13 f   KernelInterface.obj
 0001:0025e4ea       _getParmWStoResPct_        006624ea f   KernelInterface.obj
 0001:00260c14       _setParmWStoResPct_        00664c14 f   KernelInterface.obj
 0001:00263555       _getParmWStoComPct_        00667555 f   KernelInterface.obj
 0001:00265c7f       _setParmWStoComPct_        00669c7f f   KernelInterface.obj
 0001:00268556       _getParmWStoIndPct_        0066c556 f   KernelInterface.obj
 0001:0026ac80       _setParmWStoIndPct_        0066ec80 f   KernelInterface.obj
 0001:0026d557       _getParmWWtoRWWTPPct_      00671557 f   KernelInterface.obj
 0001:0026fc81       _setParmWWtoRWWTPPct_      00673c81 f   KernelInterface.obj
 0001:0027251e       _getParmWWtoEffluentPct_   0067651e f   KernelInterface.obj
 0001:00274c48       _setParmWWtoEffluentPct_   00678c48 f   KernelInterface.obj
 0001:0027751f       _getParmSWtoWBankPct_      0067b51f f   KernelInterface.obj
 0001:00279c49       _setParmSWtoWBankPct_      0067dc49 f   KernelInterface.obj
 0001:0027c550       _getParmSWtoWBankAmt_      00680550 f   KernelInterface.obj
 0001:0027ec72       _setParmSWtoWBankAmt_      00682c72 f   KernelInterface.obj
 0001:00281537       _getParmSWtoVadoseAmt_     00685537 f   KernelInterface.obj
 0001:00283c59       _setParmSWtoVadoseAmt_     00687c59 f   KernelInterface.obj
 0001:0028651e       _getParmWStoDIAmt_         0068a51e f   KernelInterface.obj
 0001:00288c40       _setParmWStoDIAmt_         0068cc40 f   KernelInterface.obj
 0001:0028b505       _getParmEffluentToPPlantPct_ 0068f505 f   KernelInterface.obj
 0001:0028dc2f       _setParmEffluentToPPlantPct_ 00691c2f f   KernelInterface.obj
 0001:002904cc       _getParmEffluenttoVadosePct_ 006944cc f   KernelInterface.obj
 0001:00292bf6       _setParmEffluenttoVadosePct_ 00696bf6 f   KernelInterface.obj
 0001:00295493       _getParmGWtoGWTPPct_       00699493 f   KernelInterface.obj
 0001:00297bbd       _setParmGWtoGWTPPct_       0069bbbd f   KernelInterface.obj
 0001:0029a45a       _setParmIncludeMeteo_      0069e45a f   KernelInterface.obj
 0001:0029c923       _getGrayWaterResidential_  006a0923 f   KernelInterface.obj
 0001:0029f06b       _getGrayWaterCommercial_   006a306b f   KernelInterface.obj
 0001:002a17b3       _getGrayWaterIndustrial_   006a57b3 f   KernelInterface.obj
 0001:002a3efb       _getGWbankedUsed_          006a7efb f   KernelInterface.obj
 0001:002a6607       _getGWbanked_              006aa607 f   KernelInterface.obj
 0001:002a8d13       _getReclaimedWaterTotal_   006acd13 f   KernelInterface.obj
 0001:002ab41f       _getReclaimedWaterOut_     006af41f f   KernelInterface.obj
 0001:002adb2b       _getReclaimedWaterUsed_    006b1b2b f   KernelInterface.obj
 0001:002b0237       _getReclaimedWaterToVadose_ 006b4237 f   KernelInterface.obj
 0001:002b2943       _getReclaimedWaterDischarged_ 006b6943 f   KernelInterface.obj
 0001:002b504f       _getReclaimedWaterDInject_ 006b904f f   KernelInterface.obj
 0001:002b775b       _getROReclaimedWaterOut_   006bb75b f   KernelInterface.obj
 0001:002b9e67       _getROReclaimedWaterUsed_  006bde67 f   KernelInterface.obj
 0001:002bc573       _getROReclaimedWaterDI_    006c0573 f   KernelInterface.obj
 0001:002bec7f       _getEffluentCreated_       006c2c7f f   KernelInterface.obj
 0001:002c138b       _getTWWTPCreated_          006c538b f   KernelInterface.obj
 0001:002c3a97       _getEffluentToPowerPlant_  006c7a97 f   KernelInterface.obj
 0001:002c61a3       _getEffluentToVadose_      006ca1a3 f   KernelInterface.obj
 0001:002c88af       _getEffluentToDischarge_   006cc8af f   KernelInterface.obj
 0001:002cafbb       _getEffluentToAg_          006cefbb f   KernelInterface.obj
 0001:002cd568       _getNonPotableOutdoorUse_  006d1568 f   KernelInterface.obj
 0001:002cfb21       _getFlushesPCD_            006d3b21 f   KernelInterface.obj
 0001:002d224b       _getParmBlackWaterPct_     006d624b f   KernelInterface.obj
 0001:002d4855       _setParmBlackWaterPct_     006d8855 f   KernelInterface.obj
 0001:002d724c       _getShowerBathPCD_         006db24c f   KernelInterface.obj
 0001:002d996e       _setShowerBathPCT_         006dd96e f   KernelInterface.obj
 0001:002dbe3f       _getDemandDeficit_         006dfe3f f   KernelInterface.obj
 0001:002de54b       _setParmAllStraws_         006e254b f   KernelInterface.obj
 0001:002e09e5       _getNewWaterSupplies_      006e49e5 f   KernelInterface.obj
 0001:002e303b       _setNewWaterSupplies_      006e703b f   KernelInterface.obj
 0001:002e5939       _getNewWaterSuppliesUsed_  006e9939 f   KernelInterface.obj
 0001:002e7f8f       _getCreditDeficits_        006ebf8f f   KernelInterface.obj
 0001:002ea5fb       _getTotalCredits_          006ee5fb f   KernelInterface.obj
 0001:002ecd07       _getIncidentalCredits_     006f0d07 f   KernelInterface.obj
 0001:002ef413       _getAgToMuniAddedCredits_  006f3413 f   KernelInterface.obj
 0001:002f1b1f       _getTotalAddedCredits_     006f5b1f f   KernelInterface.obj
 0001:002f422b       _getNormalFlowEmpiricalMax_ 006f822b f   KernelInterface.obj
 0001:002f6820       _setNormalFlowEmpiricalMax_ 006fa820 f   KernelInterface.obj
 0001:002f90b2       _getRegionalGroundwater_   006fd0b2 f   KernelInterface.obj
 0001:002fb66b       _getAgAndOtherPumping_     006ff66b f   KernelInterface.obj
 0001:002fdc24       _getRegionalInflow_        00701c24 f   KernelInterface.obj
 0001:003001dd       _getRegionalOutflow_       007041dd f   KernelInterface.obj
 0001:00302796       _getRegionalRecharge_      00706796 f   KernelInterface.obj
 0001:00304d4f       _getNaturalRecharge_       00708d4f f   KernelInterface.obj
 0001:00307308       _getfluxVadoseToAquifer_   0070b308 f   KernelInterface.obj
 0001:00309a14       _getAgToVadoseFlux_        0070da14 f   KernelInterface.obj
 0001:0030befd       _getCAGRD_                 0070fefd f   KernelInterface.obj
 0001:0030e4aa       _setCAGRD_                 007124aa f   KernelInterface.obj
 0001:00310a93       _set_parmVinze_Johnston_   00714a93 f   KernelInterface.obj
 0001:00312f59       _getProviderGPCD_          00716f59 f   KernelInterface.obj
 0001:003155af       _setProviderGPCD_          007195af f   KernelInterface.obj
 0001:00317ead       _getProviderGPCDraw_       0071bead f   KernelInterface.obj
 0001:0031a503       _getProviderGPCDres_       0071e503 f   KernelInterface.obj
 0001:0031cb59       _getProviderGPCDind_       00720b59 f   KernelInterface.obj
 0001:0031f1af       _setWaterCommercialTurf_   007231af f   KernelInterface.obj
 0001:00321686       _getGPCDResBehavior_       00725686 f   KernelInterface.obj
 0001:00323f5e       _setGPCDResBehavior_       00727f5e f   KernelInterface.obj
 0001:0032682b       _get_APIinterFaceStatus_   0072a82b f   KernelInterface.obj
 0001:00328cbc       _set_APIinterFaceStatus_   0072ccbc f   KernelInterface.obj
 0001:0032b185       _setProviderFlowToCOdelta_AF_ 0072f185 f   KernelInterface.obj
 0001:0032da0e       _getProviderCOdelataRatioAZ_ 00731a0e f   KernelInterface.obj
 0001:00330064       _setDefaultPumpingMandIPct_ 00734064 f   KernelInterface.obj
 0001:003328ed       _getDefaultPumpingMandIPct_ 007368ed f   KernelInterface.obj
 0001:00334ed9       _getCAPlossPotentialPriority4_AF_ 00738ed9 f   KernelInterface.obj
 0001:003374c5       _getCAPlossPotentialPiority5_AF_ 0073b4c5 f   KernelInterface.obj
 0001:00339ab1       _getCAPpriority4NotUsed_AF_ 0073dab1 f   KernelInterface.obj
 0001:0033c09d       _getCAPpriority5NotUsed_AF_ 0074009d f   KernelInterface.obj
 0001:0033e689       _setParmGrayWater_         00742689 f   KernelInterface.obj
 0001:00340b52       _setParmGrayWaterCompliance_ 00744b52 f   KernelInterface.obj
 0001:00342ff6       _setParmYearsToAdopt_      00746ff6 f   KernelInterface.obj
 0001:00345492       _setParmRainWaterHarvesting_ 00749492 f   KernelInterface.obj
 0001:00347952       _setParmRainWaterHarvestResOnly_ 0074b952 f   KernelInterface.obj
 0001:00349e12       _setParmRainWaterHarvestComOnly_ 0074de12 f   KernelInterface.obj
 0001:0034c2d2       _setParmStormWaterHarvesting_ 007502d2 f   KernelInterface.obj
 0001:0034e792       _setStormWaterCapacity_m3_ 00752792 f   KernelInterface.obj
 0001:0035101b       _getStormWaterCapacity_m3_ 0075501b f   KernelInterface.obj
 0001:00353607       _setParmIwaniecPPtoAgEffluent_ 00757607 f   KernelInterface.obj
 0001:00355ac7       _setParmIwaniecLeaks_      00759ac7 f   KernelInterface.obj
 0001:00357f87       _getGPCD_resGrayWater_     0075bf87 f   KernelInterface.obj
 0001:0035a5dd       _getGPCD_comGrayWater_     0075e5dd f   KernelInterface.obj
 0001:0035cc33       _getGPCD_indGrayWater_     00760c33 f   KernelInterface.obj
 0001:0035f289       _setparmIwaniecScenarios_  00763289 f   KernelInterface.obj
 0001:00361704       _setScenario_              00765704 f   KernelInterface.obj
 0001:00363b7f       _getScenario_              00767b7f f   KernelInterface.obj
 0001:00365ffa       _get_harvestedStormWater_  00769ffa f   KernelInterface.obj
 0001:003686e1       _setAgEfficiency_          0076c6e1 f   KernelInterface.obj
 0001:0036abac       _getAgPumpingTotal_        0076ebac f   KernelInterface.obj
 0001:0036d1c3       _getAgSurfaceTotal_        007711c3 f   KernelInterface.obj
 0001:0036f7da       _get_effluentUsedAg_       007737da f   KernelInterface.obj
 0001:00371df1       _getUseLCLU_               00775df1 f   KernelInterface.obj
 0001:003742bf       _setUseLCLU_               007782bf f   KernelInterface.obj
 0001:0037673a       _getRainWaterHarvested_    0077a73a f   KernelInterface.obj
 0001:00378d51       _getRainWaterHarvested_SF_ 0077cd51 f   KernelInterface.obj
 0001:0037b368       _getRainWaterHarvested_MF_ 0077f368 f   KernelInterface.obj
 0001:0037d97f       _getRainWaterHarvested_PU_ 0078197f f   KernelInterface.obj
 0001:0037ff96       _getRainWaterHarvested_COM_ 00783f96 f   KernelInterface.obj
 0001:003825ad       _getRainHarvestToTotalOutdoor_ 007865ad f   KernelInterface.obj
 0001:00384c94       _getGrayWaterToTotalOutdoor_ 00788c94 f   KernelInterface.obj
 0001:0038737b       _getReclaimedToTotalOutdoor_ 0078b37b f   KernelInterface.obj
 0001:00389a62       _getAnnualDemand_MD_AF_    0078da62 f   KernelInterface.obj
 0001:0038c149       _getAnnualDemand_HD_AF_    00790149 f   KernelInterface.obj
 0001:0038e830       _getAnnualDemand_LD_AF_    00792830 f   KernelInterface.obj
 0001:00390f17       _getAnnualDemand_Turf_AF_  00794f17 f   KernelInterface.obj
 0001:003935fe       _getAnnualDemand_GWay_AF_  007975fe f   KernelInterface.obj
 0001:00395ce5       _getAnnualDemand_Tree_AF_  00799ce5 f   KernelInterface.obj
 0001:003983cc       _getNonpotableTotalUsed_AF_ 0079c3cc f   KernelInterface.obj
 0001:0039a9fd       _getResOutdoorGPCD_PU_     0079e9fd f   KernelInterface.obj
 0001:0039cfc4       _getResIndoorGPCD_PU_      007a0fc4 f   KernelInterface.obj
 0001:0039f58b       _getResOutdoorGPCD_MD_     007a358b f   KernelInterface.obj
 0001:003a1b52       _getResIndoorGPCD_MD_      007a5b52 f   KernelInterface.obj
 0001:003a4119       _getResOutdoorGPCD_HD_     007a8119 f   KernelInterface.obj
 0001:003a66e0       _getResIndoorGPCD_HD_      007aa6e0 f   KernelInterface.obj
 0001:003a8ca7       _setRainFallFactor_        007acca7 f   KernelInterface.obj
 0001:003ab122       _getResIndoorUse_          007af122 f   KernelInterface.obj
 0001:003ad6c1       _getResOutdoorUse_         007b16c1 f   KernelInterface.obj
 0001:003afc60       _getAgRetirementPct_       007b3c60 f   KernelInterface.obj
 0001:003b212f       _setAgRetirementPct_       007b612f f   KernelInterface.obj
 0001:003b4600       _lm_lulc_                  007b8600 f   LandUseLandCover.obj
 0001:003b4611       _lm_lulc@_initlulc_        007b8611 f   LandUseLandCover.obj
 0001:003b4670       _lm_lulc@_openfiles_lu_    007b8670 f   LandUseLandCover.obj
 0001:003b48ad       _lm_lulc@_readfiles_lu_    007b88ad f   LandUseLandCover.obj
 0001:003b4c92       _lms_lulc_                 007b8c92 f   LandUseLandCover.obj
 0001:003b4ca3       _lms_lulc@_providerrcn_    007b8ca3 f   LandUseLandCover.obj
 0001:003b514f       _lms_lulc@_slcluarea_      007b914f f   LandUseLandCover.obj
 0001:003b522f       _lms_lulc@_sproportionallandcover_ 007b922f f   LandUseLandCover.obj
 0001:003b56d2       _lms_lulc@_slanduselandcoverarea_ 007b96d2 f   LandUseLandCover.obj
 0001:003b5d00       _lms_lulc@_ssetwaterusebylclu_ 007b9d00 f   LandUseLandCover.obj
 0001:003b6175       _lms_lulc@_sgetwaterusebylclu_ 007ba175 f   LandUseLandCover.obj
 0001:003b64b4       _lms_lulc@_sgetrawefficiencies_ 007ba4b4 f   LandUseLandCover.obj
 0001:003b6572       _lms_lulc@_sgetweighting_  007ba572 f   LandUseLandCover.obj
 0001:003b6852       _lms_lulc@_smultiplymatricies_ 007ba852 f   LandUseLandCover.obj
 0001:003b6ba6       _lms_lulc@_getlclupct_     007baba6 f   LandUseLandCover.obj
 0001:003b6fe2       _lms_lulc@_setlinearlclu_  007bafe2 f   LandUseLandCover.obj
 0001:003b721c       _lms_lulc@_getlinearlclu_  007bb21c f   LandUseLandCover.obj
 0001:003b7536       _lms_lulc@_logisticlclu_   007bb536 f   LandUseLandCover.obj
 0001:003b7b59       _lms_lulc@_hyperbollclu_   007bbb59 f   LandUseLandCover.obj
 0001:003b817c       _lms_lulc@_sdefaultlandcover_ 007bc17c f   LandUseLandCover.obj
 0001:003b8432       _initializelulc_           007bc432 f   LandUseLandCover.obj
 0001:003ba88a       _sdefaultrcn_              007be88a f   LandUseLandCover.obj
 0001:003bd092       _sproviderrcn_             007c1092 f   LandUseLandCover.obj
 0001:003bf54e       _ssetlcludemand_           007c354e f   LandUseLandCover.obj
 0001:003c19e1       _sgetlcludemand_           007c59e1 f   LandUseLandCover.obj
 0001:003c3e74       _srunlcluarea_             007c7e74 f   LandUseLandCover.obj
 0001:003c6307       _srunlclu_                 007ca307 f   LandUseLandCover.obj
 0001:003c8820       _lm_meteorology_           007cc820 f   Meteorology.obj
 0001:003c8831       _lm_meteorology@_initmeteo_ 007cc831 f   Meteorology.obj
 0001:003c88c3       _lm_meteorology@_openfiles_met_ 007cc8c3 f   Meteorology.obj
 0001:003c8aa9       _lm_meteorology@_readfiles_met_ 007ccaa9 f   Meteorology.obj
 0001:003ca3a3       _initializemeteo_          007ce3a3 f   Meteorology.obj
 0001:003cc800       _lm_parametercontrol_      007d0800 f   Parameter_control.obj
 0001:003cc811       _lm_parametercontrol@_initparmcontrol_ 007d0811 f   Parameter_control.obj
 0001:003cc870       _lm_parametercontrol@_openfiles_pc_ 007d0870 f   Parameter_control.obj
 0001:003cca3d       _lm_parametercontrol@_readfiles_pc_ 007d0a3d f   Parameter_control.obj
 0001:003ccf54       _lm_parametercontrol@_initarrays_ 007d0f54 f   Parameter_control.obj
 0001:003cd518       _lm_parametercontrol@_initparameters_ 007d1518 f   Parameter_control.obj
 0001:003cd70e       _lm_parametercontrol@_initbaseparms_ 007d170e f   Parameter_control.obj
 0001:003cd872       _lm_parametercontrol@_initglobal_ 007d1872 f   Parameter_control.obj
 0001:003cdabb       _lm_parametercontrol@_initco_ 007d1abb f   Parameter_control.obj
 0001:003cdb6d       _lm_parametercontrol@_initsvt_ 007d1b6d f   Parameter_control.obj
 0001:003ce2dc       _lm_parametercontrol@_initpopanddemand_ 007d22dc f   Parameter_control.obj
 0001:003cecdf       _lm_parametercontrol@_initcity_ 007d2cdf f   Parameter_control.obj
 0001:003d0ed4       _lm_parametercontrol@_initgeneral_ 007d4ed4 f   Parameter_control.obj
 0001:003d16be       _lm_parametercontrol@_initgwater_ 007d56be f   Parameter_control.obj
 0001:003d1a0e       _lm_parametercontrol@_initgeneric_ 007d5a0e f   Parameter_control.obj
 0001:003d2065       _lm_parametercontrol@_initnew_ 007d6065 f   Parameter_control.obj
 0001:003d290c       _lms_parametercontrol_     007d690c f   Parameter_control.obj
 0001:003d291d       _lms_parametercontrol@_modifydesignations_ 007d691d f   Parameter_control.obj
 0001:003d2cc5       _initializemodel_          007d6cc5 f   Parameter_control.obj
 0001:003d5141       _pcityparametercontrol_a_  007d9141 f   Parameter_control.obj
 0001:003d9124       _invokedefault_            007dd124 f   Parameter_control.obj
 0001:003dbbea       _checkdefault_             007dfbea f   Parameter_control.obj
 0001:003de9d2       _sparametercontrol_tstep_  007e29d2 f   Parameter_control.obj
 0001:003e1098       _clearinclude_             007e5098 f   Parameter_control.obj
 0001:003e3529       _sinputscity_              007e7529 f   Parameter_control.obj
 0001:003e6a80       _MAIN__                    007eaa80 f   Program.obj
 0001:003eb335       _parminitialization_       007ef335 f   Program.obj
 0001:003ed800       _lms_provider_             007f1800 f   Provider.obj
 0001:003ed811       _lms_provider@_writetodisk__ 007f1811 f   Provider.obj
 0001:003ed8f9       _lms_provider@_sprovider_  007f18f9 f   Provider.obj
 0001:003ede73       _lms_provider@_ademandsupply_ 007f1e73 f   Provider.obj
 0001:003f3880       _lms_provider@_waterbanking_ 007f7880 f   Provider.obj
 0001:003f3fbb       _lms_provider@_clearvariables_ 007f7fbb f   Provider.obj
 0001:003f4202       _lms_provider@_sendtocitymodelnewvar_ 007f8202 f   Provider.obj
 0001:003f6d78       _lms_provider@_adifference_ 007fad78 f   Provider.obj
 0001:003f7658       _nexchangevariables_       007fb658 f   Provider.obj
 0001:003f9cef       _pwaterproviders_          007fdcef f   Provider.obj
 0001:003fc340       _lm_providerpopulation_    00800340 f   ProviderPopulationandDemand.obj
 0001:003fc351       _lm_providerpopulation@_initpop_ 00800351 f   ProviderPopulationandDemand.obj
 0001:003fc3c2       _lm_providerpopulation@_openfiles_pop_ 008003c2 f   ProviderPopulationandDemand.obj
 0001:003fc6df       _lm_providerpopulation@_readfiles_pop_ 008006df f   ProviderPopulationandDemand.obj
 0001:003fd5a6       _lm_providerpopulation@_initialize_ 008015a6 f   ProviderPopulationandDemand.obj
 0001:003fd75a       _lms_providerpopanddemand_ 0080175a f   ProviderPopulationandDemand.obj
 0001:003fd76b       _lms_providerpopanddemand@_calcdemand_ 0080176b f   ProviderPopulationandDemand.obj
 0001:00403616       _lms_providerpopanddemand@_lulcdemand_ 00807616 f   ProviderPopulationandDemand.obj
 0001:004036a8       _lms_providerpopanddemand@_foutdooruse_ 008076a8 f   ProviderPopulationandDemand.obj
 0001:00403848       _lms_providerpopanddemand@_primegpcd_ 00807848 f   ProviderPopulationandDemand.obj
 0001:0040445e       _lms_providerpopanddemand@_readnewgpcd_ 0080845e f   ProviderPopulationandDemand.obj
 0001:004045cd       _lms_providerpopanddemand@_gpcdses_ 008085cd f   ProviderPopulationandDemand.obj
 0001:00405857       _lms_providerpopanddemand@_calculatealpha_ 00809857 f   ProviderPopulationandDemand.obj
 0001:00405b98       _lms_providerpopanddemand@_gpcd_target_ 00809b98 f   ProviderPopulationandDemand.obj
 0001:00405c53       _lms_providerpopanddemand@_sholttarget_ 00809c53 f   ProviderPopulationandDemand.obj
 0001:00406177       _lms_providerpopanddemand@_fholt_ 0080a177 f   ProviderPopulationandDemand.obj
 0001:0040646a       _lms_providerpopanddemand@_fminmaxalpha_ 0080a46a f   ProviderPopulationandDemand.obj
 0001:00406521       _lms_providerpopanddemand@_fminmaxbeta_ 0080a521 f   ProviderPopulationandDemand.obj
 0001:004065d7       _lms_providerpopanddemand@_sfindalphabetastart_ 0080a5d7 f   ProviderPopulationandDemand.obj
 0001:00406ad2       _lms_providerpopanddemand@_slinearregression_ 0080aad2 f   ProviderPopulationandDemand.obj
 0001:00406deb       _lms_providerpopanddemand@_sfindbetagamma_ 0080adeb f   ProviderPopulationandDemand.obj
 0001:004076df       _lms_providerpopanddemand@_ssetgpcd_ 0080b6df f   ProviderPopulationandDemand.obj
 0001:00407a13       _initializepopanddemand_   0080ba13 f   ProviderPopulationandDemand.obj
 0001:00409e6b       _readgpcdglobal_           0080de6b f   ProviderPopulationandDemand.obj
 0001:0040c375       _readprovidergpcd_         00810375 f   ProviderPopulationandDemand.obj
 0001:0040e87f       _foutdoorestimate_         0081287f f   ProviderPopulationandDemand.obj
 0001:0040eb4d       _fgpcdmethodvalues_        00812b4d f   ProviderPopulationandDemand.obj
 0001:0040ed13       _punmetdemand_             00812d13 f   ProviderPopulationandDemand.obj
 0001:004115d6       _pdemand_                  008155d6 f   ProviderPopulationandDemand.obj
 0001:004144eb       _pglobaldemand_            008184eb f   ProviderPopulationandDemand.obj
 0001:00416af4       _scleardemand_             0081aaf4 f   ProviderPopulationandDemand.obj
 0001:00419107       _providerarea2012_         0081d107 f   ProviderPopulationandDemand.obj
 0001:0041b700       _providerareaag_2012_      0081f700 f   ProviderPopulationandDemand.obj
 0001:0041de30       _typefiveexpsrp_           00821e30 f   Regressions.obj
 0001:0041e380       _typefiveexp_              00822380 f   Regressions.obj
 0001:0041e945       _typefiveexpres_           00822945 f   Regressions.obj
 0001:0041f7ed       _typefiveexpcio_           008237ed f   Regressions.obj
 0001:004204cd       _normal_                   008244cd f   Regressions.obj
 0001:004211ce       _zdistribution_            008251ce f   Regressions.obj
 0001:00421316       _donormal_                 00825316 f   Regressions.obj
 0001:0042173e       _demandnormal_             0082573e f   Regressions.obj
 0001:004219ef       _nmodifier_                008259ef f   Regressions.obj
 0001:004222b0       _catchexception_           008262b0 f   Regressions.obj
 0001:00422a49       _catchminexception_        00826a49 f   Regressions.obj
 0001:00422c11       _gm_euler_                 00826c11 f   Regressions.obj
 0001:00422c22       _gm_euler@_seuler_         00826c22 f   Regressions.obj
 0001:00422fe5       _f_                        00826fe5 f   Regressions.obj
 0001:00423072       _ptypefiveexp_             00827072 f   Regressions.obj
 0001:0042324e       _gaussian_                 0082724e f   Regressions.obj
 0001:0042340f       _gaussianprime_            0082740f f   Regressions.obj
 0001:00423660       _lms_srpnewrelease_        00827660 f   SRPnewRelease.obj
 0001:00423671       _lms_srpnewrelease@_initialize_ 00827671 f   SRPnewRelease.obj
 0001:004238a5       _lms_srpnewrelease@_nrelease_ 008278a5 f   SRPnewRelease.obj
 0001:00423d25       _lms_srpnewrelease@_areleaseout_ 00827d25 f   SRPnewRelease.obj
 0001:00423f68       _lms_srpnewrelease@_updatestate_ 00827f68 f   SRPnewRelease.obj
 0001:0042437c       _lms_srpnewrelease@_outputstointerface_ 0082837c f   SRPnewRelease.obj
 0001:004244b9       _psrpnewrelease_           008284b9 f   SRPnewRelease.obj
 0001:00426b10       _lms_srpwateroperations_   0082ab10 f   SRPwaterOperations.obj
 0001:00426b21       _lms_srpwateroperations@_classa_ 0082ab21 f   SRPwaterOperations.obj
 0001:0042706e       _lms_srpwateroperations@_ncs_ 0082b06e f   SRPwaterOperations.obj
 0001:00427a21       _psrp_newclassa_           0082ba21 f   SRPwaterOperations.obj
 0001:0042a383       _psrp_newclassbc_          0082e383 f   SRPwaterOperations.obj
 0001:0042ddb4       _psrp_newncs_              00831db4 f   SRPwaterOperations.obj
 0001:004305b0       _sstrings_                 008345b0 f   Strings.obj
 0001:0043105a       _soncethrough_             0083505a f   Strings.obj
 0001:004316b8       _swrite_                   008356b8 f   Strings.obj
 0001:004318f9       _ewrite_                   008358f9 f   Strings.obj
 0001:00431b80       _gm_typecontrol_           00835b80 f   TypeConstructs.obj
 0001:00431b90       _lms_watershed_            00835b90 f   WaterShed.obj
 0001:00431ba1       _lms_watershed@_initgroundwater_ 00835ba1 f   WaterShed.obj
 0001:00431ca7       _lms_watershed@_initgw_    00835ca7 f   WaterShed.obj
 0001:00431eb4       _pinitgroundwater_         00835eb4 f   WaterShed.obj
 0001:00434445       _flows_                    00838445 f   WaterShed.obj
 0001:004369a0       _sflowforenvironment_      0083a9a0 f   WaterShed.obj
 0001:004398ad       _sflowssalttontoverde_     0083d8ad f   WaterShed.obj
 0001:0043bdbb       _pdesignate_               0083fdbb f   WaterShed.obj
 0001:0043e510       _lm_river_ba_              00842510 f   WaterShed_CO.obj
 0001:0043e521       _lm_river_ba@_initwsb_     00842521 f   WaterShed_CO.obj
 0001:0043e5a4       _lm_river_ba@_openfiles_b_ 008425a4 f   WaterShed_CO.obj
 0001:0043eb03       _lm_river_ba@_readfiles_b_ 00842b03 f   WaterShed_CO.obj
 0001:0043fda3       _lm_river_ba@_readparms_b_ 00843da3 f   WaterShed_CO.obj
 0001:00440133       _lm_river_ba@_initialstate_b_ 00844133 f   WaterShed_CO.obj
 0001:004402ff       _lms_river_ba_             008442ff f   WaterShed_CO.obj
 0001:00440310       _lms_river_ba@_initial_co_ 00844310 f   WaterShed_CO.obj
 0001:00440577       _lms_river_ba@_aflow_b_    00844577 f   WaterShed_CO.obj
 0001:00441ba6       _lms_river_ba@_amodifyflow_ba_ 00845ba6 f   WaterShed_CO.obj
 0001:00442641       _lms_river_ba@_amodifyflow_bb_ 00846641 f   WaterShed_CO.obj
 0001:00442987       _lms_river_ba@_amodifyflow_bc_ 00846987 f   WaterShed_CO.obj
 0001:00442ef2       _lms_river_ba@_upperbasinempirical_ 00846ef2 f   WaterShed_CO.obj
 0001:004431b4       _lms_river_ba@_aouttointerface_ 008471b4 f   WaterShed_CO.obj
 0001:0044326b       _lms_river_ba@_reservoirs_b_ 0084726b f   WaterShed_CO.obj
 0001:0044343b       _lms_river_ba@_expectedstorage_ba_ 0084743b f   WaterShed_CO.obj
 0001:00443774       _lms_river_ba@_initialstorage_b_ 00847774 f   WaterShed_CO.obj
 0001:0044388b       _lms_river_ba@_expectedstorage_bb_ 0084788b f   WaterShed_CO.obj
 0001:00443b73       _lms_river_ba@_fbankstoragepowell_ 00847b73 f   WaterShed_CO.obj
 0001:00443bff       _lms_river_ba@_fbankstoragemead_ 00847bff f   WaterShed_CO.obj
 0001:00443c8b       _lms_river_ba@_amodifystorage_ba_ 00847c8b f   WaterShed_CO.obj
 0001:004446ad       _lms_river_ba@_actualrelease_ 008486ad f   WaterShed_CO.obj
 0001:00444a19       _lms_river_ba@_overriderelease_ 00848a19 f   WaterShed_CO.obj
 0001:00444c54       _lms_river_ba@_adwrrelease_ 00848c54 f   WaterShed_CO.obj
 0001:00445d92       _lms_river_ba@_actualstorage_ 00849d92 f   WaterShed_CO.obj
 0001:004465a6       _lms_river_ba@_threshold_b_ 0084a5a6 f   WaterShed_CO.obj
 0001:004471f1       _lms_river_ba@_targetamount_ 0084b1f1 f   WaterShed_CO.obj
 0001:00447520       _lms_river_ba@_equalizationtier_ 0084b520 f   WaterShed_CO.obj
 0001:00448090       _lms_river_ba@_upperelevationtier_ 0084c090 f   WaterShed_CO.obj
 0001:00448531       _lms_river_ba@_targetelevations_ 0084c531 f   WaterShed_CO.obj
 0001:0044893a       _lms_river_ba@_balancecontent_ 0084c93a f   WaterShed_CO.obj
 0001:0044912e       _lms_river_ba@_elevationspowell_ 0084d12e f   WaterShed_CO.obj
 0001:00449334       _lms_river_ba@_statefromelevationpowell_ 0084d334 f   WaterShed_CO.obj
 0001:004493ce       _lms_river_ba@_elevationsmead_ 0084d3ce f   WaterShed_CO.obj
 0001:0044957a       _lms_river_ba@_amodifystorage_bb_ 0084d57a f   WaterShed_CO.obj
 0001:0044b2cb       _lms_river_ba@_statesshortageratios_ 0084f2cb f   WaterShed_CO.obj
 0001:0044b49c       _lms_river_ba@_sevenstates_ 0084f49c f   WaterShed_CO.obj
 0001:0044b7b6       _lms_river_ba@_designations_b_ 0084f7b6 f   WaterShed_CO.obj
 0001:0044bbc3       _lms_river_ba@_updatestate_b_ 0084fbc3 f   WaterShed_CO.obj
 0001:0044c3c4       _lms_river_ba@_outinitialb_ 008503c4 f   WaterShed_CO.obj
 0001:0044c45e       _lms_river_ba@_outputsb_   0085045e f   WaterShed_CO.obj
 0001:0044c6ec       _initializecolorado_       008506ec f   WaterShed_CO.obj
 0001:0044ebae       _pflowsreservoirscolorado_ 00852bae f   WaterShed_CO.obj
 0001:00451390       _lm_srpsalttonto_          00855390 f   WaterShed_SaltTonto.obj
 0001:004513a1       _lm_srpsalttonto@_initwssalttonto_ 008553a1 f   WaterShed_SaltTonto.obj
 0001:00451400       _lm_srpsalttonto@_openfiles_st_ 00855400 f   WaterShed_SaltTonto.obj
 0001:00451554       _lm_srpsalttonto@_readfiles_st_ 00855554 f   WaterShed_SaltTonto.obj
 0001:00451932       _lm_srpsalttonto@_initialstate_st_ 00855932 f   WaterShed_SaltTonto.obj
 0001:004519f7       _lms_srpsalttonto_         008559f7 f   WaterShed_SaltTonto.obj
 0001:00451a08       _lms_srpsalttonto@_ainflow_salttonto_ 00855a08 f   WaterShed_SaltTonto.obj
 0001:00452552       _lms_srpsalttonto@_countyears_ 00856552 f   WaterShed_SaltTonto.obj
 0001:00452683       _lms_srpsalttonto@_monthlyflow_ 00856683 f   WaterShed_SaltTonto.obj
 0001:004528e9       _lms_srpsalttonto@_expectedstoragesalt_ 008568e9 f   WaterShed_SaltTonto.obj
 0001:00452d9f       _lms_srpsalttonto@_normalflowavailablemonthly_ 00856d9f f   WaterShed_SaltTonto.obj
 0001:004534fa       _lms_srpsalttonto@_monthlybc_ 008574fa f   WaterShed_SaltTonto.obj
 0001:00453727       _lms_srpsalttonto@_storagesaltmonthly_ 00857727 f   WaterShed_SaltTonto.obj
 0001:00454803       _lms_srpsalttonto@_storagerooseveltmonthly_ 00858803 f   WaterShed_SaltTonto.obj
 0001:00454fca       _lms_srpsalttonto@_initializeloop_ 00858fca f   WaterShed_SaltTonto.obj
 0001:00455089       _lms_srpsalttonto@_outputstointerface_ 00859089 f   WaterShed_SaltTonto.obj
 0001:004552da       _lms_srpsalttonto@_validate_ 008592da f   WaterShed_SaltTonto.obj
 0001:004554a3       _lms_srpsalttonto@_updatestate_ 008594a3 f   WaterShed_SaltTonto.obj
 0001:0045570d       _lms_srpsalttonto@_movingaveage_ 0085970d f   WaterShed_SaltTonto.obj
 0001:00455c59       _initializesalttonto_      00859c59 f   WaterShed_SaltTonto.obj
 0001:004580b1       _adjustedflowsalttonto_    0085c0b1 f   WaterShed_SaltTonto.obj
 0001:0045a64a       _normalflowsalttonto_      0085e64a f   WaterShed_SaltTonto.obj
 0001:0045d540       _lm_river_aa_              00861540 f   WaterShed_STV.obj
 0001:0045d551       _lm_river_aa@_initwsa_     00861551 f   WaterShed_STV.obj
 0001:0045d5d4       _lm_river_aa@_openfiles_a_ 008615d4 f   WaterShed_STV.obj
 0001:0045d811       _lm_river_aa@_readfiles_a_ 00861811 f   WaterShed_STV.obj
 0001:0045dcb5       _lm_river_aa@_readparms_a_ 00861cb5 f   WaterShed_STV.obj
 0001:0045e10a       _lm_river_aa@_initialstate_a_ 0086210a f   WaterShed_STV.obj
 0001:0045e4e3       _lms_river_aa_             008624e3 f   WaterShed_STV.obj
 0001:0045e4f4       _lms_river_aa@_outinitiala_ 008624f4 f   WaterShed_STV.obj
 0001:0045e53b       _lms_river_aa@_sunintendedrecharge_ 0086253b f   WaterShed_STV.obj
 0001:0045e77e       _initializesalttontoverde_ 0086277e f   WaterShed_STV.obj
 0001:00460bd6       _psalttontoverde_          00864bd6 f   WaterShed_STV.obj
 0001:00463110       _lm_srpverde_              00867110 f   WaterShed_Verde.obj
 0001:00463121       _lm_srpverde@_initwsverde_ 00867121 f   WaterShed_Verde.obj
 0001:00463180       _lm_srpverde@_openfiles_v_ 00867180 f   WaterShed_Verde.obj
 0001:004632c3       _lm_srpverde@_readfiles_v_ 008672c3 f   WaterShed_Verde.obj
 0001:004636a1       _lm_srpverde@_initialstate_v_ 008676a1 f   WaterShed_Verde.obj
 0001:0046370a       _lms_srpverde_             0086770a f   WaterShed_Verde.obj
 0001:0046371b       _lms_srpverde@_ainflow_verde_ 0086771b f   WaterShed_Verde.obj
 0001:0046425e       _lms_srpverde@_countyears_ 0086825e f   WaterShed_Verde.obj
 0001:0046438f       _lms_srpverde@_monthlyflow_ 0086838f f   WaterShed_Verde.obj
 0001:004645f5       _lms_srpverde@_expectedstorageverde_ 008685f5 f   WaterShed_Verde.obj
 0001:004649bf       _lms_srpverde@_normalflowavailablemonthly_ 008689bf f   WaterShed_Verde.obj
 0001:0046501f       _lms_srpverde@_monthlybc_  0086901f f   WaterShed_Verde.obj
 0001:0046589f       _lms_srpverde@_storageverdemonthly_ 0086989f f   WaterShed_Verde.obj
 0001:004664e6       _lms_srpverde@_initializeloop_ 0086a4e6 f   WaterShed_Verde.obj
 0001:004665d3       _lms_srpverde@_transferout_ 0086a5d3 f   WaterShed_Verde.obj
 0001:004666a5       _lms_srpverde@_outputstointerface_ 0086a6a5 f   WaterShed_Verde.obj
 0001:0046683c       _lms_srpverde@_validate_   0086a83c f   WaterShed_Verde.obj
 0001:00466b29       _lms_srpverde@_updatestate_ 0086ab29 f   WaterShed_Verde.obj
 0001:00466c18       _initializeverde_          0086ac18 f   WaterShed_Verde.obj
 0001:00469070       _adjustedflowverde_        0086d070 f   WaterShed_Verde.obj
 0001:0046b503       _normalflowverde_          0086f503 f   WaterShed_Verde.obj
 0001:0046de70       _monthlydemand_            00871e70 f   WaterShed_Verde.obj
 0001:0046e177       _checkclassaflowavailable_ 00872177 f   WaterShed_Verde.obj
 0001:0046e2e0       _lm_citiwaterbudgets_      008722e0 f   Water_CityModel.obj
 0001:0046e2f1       _lm_citiwaterbudgets@_initcitymodel_ 008722f1 f   Water_CityModel.obj
 0001:0046e350       _lm_citiwaterbudgets@_openfiles_cm_ 00872350 f   Water_CityModel.obj
 0001:0046e58d       _lm_citiwaterbudgets@_readfiles_cm_ 0087258d f   Water_CityModel.obj
 0001:0046e972       _lms_citiwaterbudgets_     00872972 f   Water_CityModel.obj
 0001:0046e983       _lms_citiwaterbudgets@_saquifer_ 00872983 f   Water_CityModel.obj
 0001:0046ff3e       _lms_citiwaterbudgets@_scommercial_ 00873f3e f   Water_CityModel.obj
 0001:00472575       _lms_citiwaterbudgets@_sshowerminutes_ 00876575 f   Water_CityModel.obj
 0001:004726b9       _lms_citiwaterbudgets@_sindustrial_ 008766b9 f   Water_CityModel.obj
 0001:00474d9b       _lms_citiwaterbudgets@_sdirectinjection_ 00878d9b f   Water_CityModel.obj
 0001:004752ce       _lms_citiwaterbudgets@_seffluent_ 008792ce f   Water_CityModel.obj
 0001:004769a6       _lms_citiwaterbudgets@_sgwtreatment_ 0087a9a6 f   Water_CityModel.obj
 0001:00476e6c       _lms_citiwaterbudgets@_sindustrialreuse_ 0087ae6c f   Water_CityModel.obj
 0001:0047757b       _lms_citiwaterbudgets@_sreclaimed_ 0087b57b f   Water_CityModel.obj
 0001:0047836f       _lms_citiwaterbudgets@_sresidential_ 0087c36f f   Water_CityModel.obj
 0001:0047abc0       _lms_citiwaterbudgets@_sroprocess_ 0087ebc0 f   Water_CityModel.obj
 0001:0047b458       _lms_citiwaterbudgets@_srwwtp_ 0087f458 f   Water_CityModel.obj
 0001:0047bc10       _lms_citiwaterbudgets@_ssurfacewater_ 0087fc10 f   Water_CityModel.obj
 0001:0047c7e9       _lms_citiwaterbudgets@_sswtp_ 008807e9 f   Water_CityModel.obj
 0001:0047cbff       _lms_citiwaterbudgets@_svadose_ 00880bff f   Water_CityModel.obj
 0001:0047e833       _lms_citiwaterbudgets@_slagvadose_ 00882833 f   Water_CityModel.obj
 0001:0047ede7       _lms_citiwaterbudgets@_storelaggedvadose_ 00882de7 f   Water_CityModel.obj
 0001:0047f06c       _lms_citiwaterbudgets@_fvadoseinfiltration_ 0088306c f   Water_CityModel.obj
 0001:0047f14a       _lms_citiwaterbudgets@_fvadoseloss_ 0088314a f   Water_CityModel.obj
 0001:0047f21c       _lms_citiwaterbudgets@_swsupply_ 0088321c f   Water_CityModel.obj
 0001:00480e49       _lms_citiwaterbudgets@_swwtp_ 00884e49 f   Water_CityModel.obj
 0001:0048199e       _lms_citiwaterbudgets@_sagriculture_ 0088599e f   Water_CityModel.obj
 0001:00481df5       _lms_citiwaterbudgets@_spowerplant_ 00885df5 f   Water_CityModel.obj
 0001:00482004       _lms_citiwaterbudgets@_sbalancews_ 00886004 f   Water_CityModel.obj
 0001:00482bc0       _lms_citiwaterbudgets@_sproportionnew_ 00886bc0 f   Water_CityModel.obj
 0001:004831d0       _lms_citiwaterbudgets@_sproportion_ 008871d0 f   Water_CityModel.obj
 0001:004844fa       _lms_citiwaterbudgets@_srangecheck_ 008884fa f   Water_CityModel.obj
 0001:00484783       _lms_citiwaterbudgets@_swaterfluxtoatmos_ 00888783 f   Water_CityModel.obj
 0001:00484987       _lms_citiwaterbudgets@_supdatestate_ 00888987 f   Water_CityModel.obj
 0001:00484d7e       _lms_citiwaterbudgets@_sstepupdate_ 00888d7e f   Water_CityModel.obj
 0001:00485373       _lms_citiwaterbudgets@_sgraywater_ 00889373 f   Water_CityModel.obj
 0001:00485b80       _lms_citiwaterbudgets@_sblackwater_ 00889b80 f   Water_CityModel.obj
 0001:00486351       _lms_citiwaterbudgets@_srunoff_ 0088a351 f   Water_CityModel.obj
 0001:0048653e       _lms_citiwaterbudgets@_fpercolation_ 0088a53e f   Water_CityModel.obj
 0001:00486650       _lms_citiwaterbudgets@_fstormwaterstorage_ 0088a650 f   Water_CityModel.obj
 0001:004869ef       _lms_citiwaterbudgets@_speakrainfall_ 0088a9ef f   Water_CityModel.obj
 0001:00486afc       _lms_citiwaterbudgets@_srainfallrunoff_ 0088aafc f   Water_CityModel.obj
 0001:00487ead       _lms_citiwaterbudgets@_sconverge_ 0088bead f   Water_CityModel.obj
 0001:00487ee8       _lms_citiwaterbudgets@_svadosecurve_ 0088bee8 f   Water_CityModel.obj
 0001:00487fc2       _lms_citiwaterbudgets@_typetransferin_ 0088bfc2 f   Water_CityModel.obj
 0001:00489408       _lms_citiwaterbudgets@_typetransferout_ 0088d408 f   Water_CityModel.obj
 0001:0048a224       _lms_citiwaterbudgets@_soutputtointerface_ 0088e224 f   Water_CityModel.obj
 0001:0048bc2e       _lms_citiwaterbudgets@_scitymodelwater_ 0088fc2e f   Water_CityModel.obj
 0001:0048c3f0       _lms_citiwaterbudgets@_loopend_ 008903f0 f   Water_CityModel.obj
 0001:0048c479       _lms_citiwaterbudgets@_screditbalance_ 00890479 f   Water_CityModel.obj
 0001:0048cbe3       _lms_citiwaterbudgets@_outputs_ 00890be3 f   Water_CityModel.obj
 0001:0048cdcb       _initializecitymodel_      00890dcb f   Water_CityModel.obj
 0001:0048f211       _pcitimodel_               00893211 f   Water_CityModel.obj
 0001:00491d4f       _frainevaporationrate_     00895d4f f   Water_CityModel.obj
 0001:00491e20       _f_anint                   00895e20 f   fj90f:jwe_fani.obj
 0001:00491ea0       _f_trim                    00895ea0 f   fj90f:jwe_ftrm.obj
 0001:00491ef0       _f_scmov                   00895ef0 f   fj90f:jwe_fcmv.obj
 0001:00491f50       _f_cmove                   00895f50 f   fj90f:jwe_fcmv.obj
 0001:00491fb0       _f_dnint                   00895fb0 f   fj90f:jwe_fdni.obj
 0001:004920c0       _f_aixi                    008960c0 f   fj90f:jwe_fixi.obj
 0001:00492270       _f_index                   00896270 f   fj90f:jwe_fidx.obj
 0001:004922e0       _f_indexa                  008962e0 f   fj90f:jwe_fidx.obj
 0001:004923c0       _f_indexj                  008963c0 f   fj90f:jwe_fidx.obj
 0001:00492460       _f_indxaj                  00896460 f   fj90f:jwe_fidx.obj
 0001:004925a0       _f_datim                   008965a0 f   fj90f:jwe_fdat.obj
 0001:00492bd0       _f_dint                    00896bd0 f   fj90f:jwe_fdin.obj
 0001:00492c40       _f_cshft                   00896c40 f   fj90f:jwe_fcsh.obj
 0001:00495430       _jwe_fcsh1                 00899430 f   fj90f:jwe_fcsh1.obj
 0001:00497710       _jwe_fcsh8                 0089b710 f   fj90f:jwe_fcsh8.obj
 0001:00499e10       _jwe_fcsh4                 0089de10 f   fj90f:jwe_fcsh4.obj
 0001:0049c080       _jwe_fcsh2                 008a0080 f   fj90f:jwe_fcsh2.obj
 0001:0049e300       _g_arxr                    008a2300 f   fj90g:jwe_grxr.obj
 0001:0049e94a       _jwe_gpow                  008a294a f   fj90g:jwe_grxr.obj
 0001:0049eae0       _g_exp                     008a2ae0 f   fj90g:jwe_gexp.obj
 0001:0049ec10       _g_adxd                    008a2c10 f   fj90g:jwe_gdxd.obj
 0001:0049f0f0       _jwe_gpwd                  008a30f0 f   fj90g:jwe_gdxd.obj
 0001:0049f350       _g_fract                   008a3350 f   fj90g:jwe_gfrr.obj
 0001:0049f390       _g_atan                    008a3390 f   fj90g:jwe_gatn.obj
 0001:0049f3b0       _g_dexp                    008a33b0 f   fj90g:jwe_gdex.obj
 0001:0049f4f0       _jwe_gdex                  008a34f0 f   fj90g:jwe_gdex.obj
 0001:0049f510       _g_dsqrt                   008a3510 f   fj90g:jwe_gdsq.obj
 0001:0049f620       _jwe_ilst                  008a3620 f   fj90i:jwe_ilst.obj
 0001:0049fbe0       _jwe_iocf                  008a3be0 f   fj90i:jwe_iocf.obj
 0001:004a23b0       _jwe_ifac                  008a63b0 f   fj90i:jwe_iocf.obj
 0001:004a25c0       _jwe_debg                  008a65c0 f   fj90i:jwe_debg.obj
 0001:004a30a0       _jwe_iinq                  008a70a0 f   fj90i:jwe_iinq.obj
 0001:004a32f0       _jwe_iiq0                  008a72f0 f   fj90i:jwe_iinq.obj
 0001:004a3690       _jwe_iiq1                  008a7690 f   fj90i:jwe_iinq.obj
 0001:004a3980       _jwe_iiq2                  008a7980 f   fj90i:jwe_iinq.obj
 0001:004a3c60       _jwe_iiq3                  008a7c60 f   fj90i:jwe_iinq.obj
 0001:004a41c0       _jwe_iiqs                  008a81c0 f   fj90i:jwe_iinq.obj
 0001:004a4e10       _jwe_iiqe                  008a8e10 f   fj90i:jwe_iinq.obj
 0001:004a50c0       _jwe_iiq4                  008a90c0 f   fj90i:jwe_iinq.obj
 0001:004a53b0       _jwe_iiq5                  008a93b0 f   fj90i:jwe_iinq.obj
 0001:004a5a60       _jwe_xalc                  008a9a60 f   fj90i:jwe_xalc.obj
 0001:004a5ec0       _jwe_x_alloc_trace         008a9ec0 f   fj90i:jwe_xalc.obj
 0001:004a5ff0       _jwe_xdal                  008a9ff0 f   fj90i:jwe_xdal.obj
 0001:004a63a0       _jwe_iinf                  008aa3a0 f   fj90i:jwe_iinf.obj
 0001:004a6e40       _jwe_xstp                  008aae40 f   fj90i:jwe_xstp.obj
 0001:004a6f90       _jwe_xadt                  008aaf90 f   fj90i:jwe_xadt.obj
 0001:004a7170       _jwe_xddt                  008ab170 f   fj90i:jwe_xadt.obj
 0001:004a73b0       _jwe_xopt                  008ab3b0 f   fj90i:jwe_xopt.obj
 0001:004a8370       _jwe_xcop                  008ac370 f   fj90i:jwe_xopt.obj
 0001:004a85d0       _jwe_xrcp                  008ac5d0 f   fj90i:jwe_xopt.obj
 0001:004a85e0       _jwe_isfm                  008ac5e0 f   fj90i:jwe_isfm.obj
 0001:004a8e70       _jwe_ipsf                  008ace70 f   fj90i:jwe_ipsf.obj
 0001:004a9240       _jwe_xilc                  008ad240 f   fj90i:jwe_xilc.obj
 0001:004a9280       _jwe_xint                  008ad280 f   fj90i:jwe_xint.obj
 0001:004a9300       _jwe_iedo                  008ad300 f   fj90i:jwe_iedo.obj
 0001:004ac390       _jwe_ildo                  008b0390 f   fj90i:jwe_ildo.obj
 0001:004adbd0       _jwe_illd                  008b1bd0 f   fj90i:jwe_ildo.obj
 0001:004add00       _jwe_iedi                  008b1d00 f   fj90i:jwe_iedi.obj
 0001:004b1330       _jwe_ilni                  008b5330 f   fj90i:jwe_ilni.obj
 0001:004b2720       _jwe_ildi                  008b6720 f   fj90i:jwe_ildi.obj
 0001:004b33c0       _jwe_iscf                  008b73c0 f   fj90i:jwe_iscf.obj
 0001:004b3f80       _jwe_icui                  008b7f80 f   fj90i:jwe_icui.obj
 0001:004b43f0       _jwe_iist                  008b83f0 f   fj90i:jwe_icui.obj
 0001:004b4440       _jwe_isui                  008b8440 f   fj90i:jwe_isui.obj
 0001:004b4570       _jwe_isu1                  008b8570 f   fj90i:jwe_isui.obj
 0001:004b4620       _jwe_icep                  008b8620 f   fj90i:jwe_icep.obj
 0001:004b46e0       _jwe_ifcf                  008b86e0 f   fj90i:jwe_ifcf.obj
 0001:004b4860       _jwe_ifcc                  008b8860 f   fj90i:jwe_ifcc.obj
 0001:004b4920       _jwe_iflc                  008b8920 f   fj90i:jwe_iflc.obj
 0001:004b4b80       _jwe_iflo                  008b8b80 f   fj90i:jwe_iflo.obj
 0001:004b4c10       _jwe_ienv                  008b8c10 f   fj90i:jwe_ienv.obj
 0001:004b4d90       _jwe_isss                  008b8d90 f   fj90i:jwe_isss.obj
 0001:004b4da0       _jwe_ifnc                  008b8da0 f   fj90i:jwe_ifnc.obj
 0001:004b5050       _jwe_ifck                  008b9050 f   fj90i:jwe_ifck.obj
 0001:004b5120       _jwe_igfn                  008b9120 f   fj90i:jwe_igfn.obj
 0001:004b51d0       _jwe_iftx                  008b91d0 f   fj90i:jwe_iftx.obj
 0001:004b5330       _jwe_dsha                  008b9330 f   fj90i:jwe_dsha.obj
 0001:004b5560       _jwe_dren                  008b9560 f   fj90i:jwe_dren.obj
 0001:004b56c0       _jwe_dpme                  008b96c0 f   fj90i:jwe_dpme.obj
 0001:004b5790       _jwe_ddou                  008b9790 f   fj90i:jwe_ddou.obj
 0001:004b5920       _jwe_ddoa                  008b9920 f   fj90i:jwe_ddoa.obj
 0001:004b5b00       _jwe_dpck                  008b9b00 f   fj90i:jwe_dpck.obj
 0001:004b5b90       _jwe_dudf                  008b9b90 f   fj90i:jwe_dudf.obj
 0001:004b5cd0       _jwe_dudd                  008b9cd0 f   fj90i:jwe_dudf.obj
 0001:004b6430       _jwe_duda                  008ba430 f   fj90i:jwe_dudf.obj
 0001:004b6700       _jwe_dudc                  008ba700 f   fj90i:jwe_dudf.obj
 0001:004b6e70       _jwe_dude                  008bae70 f   fj90i:jwe_dudf.obj
 0001:004b70c0       _jwe_dudn                  008bb0c0 f   fj90i:jwe_dudf.obj
 0001:004b73a0       _jwe_dedc                  008bb3a0 f   fj90i:jwe_dudf.obj
 0001:004b7410       _jwe_dvec                  008bb410 f   fj90i:jwe_dudf.obj
 0001:004b7780       _jwe_dsck                  008bb780 f   fj90i:jwe_dsck.obj
 0001:004b83b0       _jwe_dsce                  008bc3b0 f   fj90i:jwe_dsck.obj
 0001:004b8860       _jwe_duis                  008bc860 f   fj90i:jwe_duis.obj
 0001:004b89d0       _jwe_duid                  008bc9d0 f   fj90i:jwe_duis.obj
 0001:004b8de0       _jwe_dack                  008bcde0 f   fj90i:jwe_dack.obj
 0001:004b9660       _jwe_dacd                  008bd660 f   fj90i:jwe_dack.obj
 0001:004ba530       _jwe_iiol                  008be530 f   fj90i:jwe_iiol.obj
 0001:004baa50       _jwe_iils                  008bea50 f   fj90i:jwe_iiol.obj
 0001:004baaa0       _jwe_ifil                  008beaa0 f   fj90i:jwe_ifil.obj
 0001:004baf40       _jwe_iunt                  008bef40 f   fj90i:jwe_iunt.obj
 0001:004bb020       _jwe_iblk                  008bf020 f   fj90i:jwe_iblk.obj
 0001:004bb150       _jwe_xalc_fast             008bf150 f   fj90i:jwe_xdta.obj
 0001:004bb360       _jwe_xdal_fast             008bf360 f   fj90i:jwe_xdta.obj
 0001:004bb600       _jwe_xget_align            008bf600 f   fj90i:jwe_xdta.obj
 0001:004bb670       _jwe_xfree_align           008bf670 f   fj90i:jwe_xdta.obj
 0001:004bb690       _jwe_ifct                  008bf690 f   fj90i:jwe_ifct.obj
 0001:004bd7b0       _jwe_isob                  008c17b0 f   fj90i:jwe_isob.obj
 0001:004bd8e0       _jwe_ifmt                  008c18e0 f   fj90i:jwe_ifmt.obj
 0001:004bee50       _jwe_inao                  008c2e50 f   fj90i:jwe_inao.obj
 0001:004c04b0       _jwe_inai                  008c44b0 f   fj90i:jwe_inai.obj
 0001:004c1920       _jwe_inkw                  008c5920 f   fj90i:jwe_inai.obj
 0001:004c20d0       _jwe_inch                  008c60d0 f   fj90i:jwe_inai.obj
 0001:004c2140       _jwe_inc2                  008c6140 f   fj90i:jwe_inai.obj
 0001:004c2180       _jwe_inhx                  008c6180 f   fj90i:jwe_inai.obj
 0001:004c2350       _jwe_inex                  008c6350 f   fj90i:jwe_inai.obj
 0001:004c23a0       _jwe_inhc                  008c63a0 f   fj90i:jwe_inai.obj
 0001:004c30f0       _jwe_ine1                  008c70f0 f   fj90i:jwe_inai.obj
 0001:004c32d0       _jwe_ine2                  008c72d0 f   fj90i:jwe_inai.obj
 0001:004c34f0       _jwe_ine3                  008c74f0 f   fj90i:jwe_inai.obj
 0001:004c3620       _jwe_in_g                  008c7620 f   fj90i:jwe_inai.obj
 0001:004c3810       _jwe_insf                  008c7810 f   fj90i:jwe_inai.obj
 0001:004c3890       _jwe_inah                  008c7890 f   fj90i:jwe_inai.obj
 0001:004c38f0       _jwe_igad                  008c78f0 f   fj90i:jwe_igad.obj
 0001:004c3910       _jwe_ipid                  008c7910 f   fj90i:jwe_ipid.obj
 0001:004c39a0       _jwe_iipg                  008c79a0 f   fj90i:jwe_iipg.obj
 0001:004c3cf0       _jwe_epmp                  008c7cf0 f   fj90i:jwe_eprt.obj
 0001:004c3db0       _jwe_eprt                  008c7db0 f   fj90i:jwe_eprt.obj
 0001:004c4250       _jwe_etpt                  008c8250 f   fj90i:jwe_etpt.obj
 0001:004c4280       _jwe_xsns                  008c8280 f   fj90i:jwe_xsns.obj
 0001:004c4308       _jwe_xscr                  008c8308 f   fj90i:jwe_xsns.obj
 0001:004c439c       _jwe_xgsr                  008c839c f   fj90i:jwe_xsns.obj
 0001:004c4440       _jwe_xexi                  008c8440 f   fj90i:jwe_xexi.obj
 0001:004c44a0       _jwe_iadc                  008c84a0 f   fj90i:jwe_iadc.obj
 0001:004c4700       _jwe_idfm                  008c8700 f   fj90i:jwe_idfm.obj
 0001:004c4b30       _jwe_iprw                  008c8b30 f   fj90i:jwe_iprw.obj
 0001:004c5240       _jwe_ipbs                  008c9240 f   fj90i:jwe_ipbs.obj
 0001:004c5a40       _jwe_ipef                  008c9a40 f   fj90i:jwe_ipef.obj
 0001:004c6270       _jwe_iluc                  008ca270 f   fj90i:jwe_iluc.obj
 0001:004c6380       _jwe_ioef                  008ca380 f   fj90i:jwe_ioef.obj
 0001:004c6400       _jwe_iosf                  008ca400 f   fj90i:jwe_iosf.obj
 0001:004c65c0       _jwe_eerm                  008ca5c0 f   fj90i:jwe_eerm.obj
 0001:004c6a10       _jwe_xbfh                  008caa10 f   fj90i:jwe_xbfh.obj
 0001:004c6a30       _jwe_xbsg                  008caa30 f   fj90i:jwe_xbsg.obj
 0001:004c6a80       _jwe_xend                  008caa80 f   fj90i:jwe_xend.obj
 0001:004c6ba0       _jwe_xtim                  008caba0 f   fj90i:jwe_xtim.obj
 0001:004c6c60       _jwe_ifss                  008cac60 f   fj90i:jwe_ifss.obj
 0001:004c6d50       _jwe_icfc                  008cad50 f   fj90i:jwe_icfc.obj
 0001:004c6d80       _jwe_xexs                  008cad80 f   fj90i:jwe_xexs.obj
 0001:004c6da0       _jwe_xets                  008cada0 f   fj90i:jwe_xexs.obj
 0001:004c6fb0       _jwe_xacp                  008cafb0 f   fj90i:jwe_xacp.obj
 0001:004c6ff0       _jwe_eset                  008caff0 f   fj90i:jwe_eset.obj
 0001:004c7000       _jwe_iric                  008cb000 f   fj90i:jwe_irio.obj
 0001:004c7f60       _jwe_iroc                  008cbf60 f   fj90i:jwe_irio.obj
 0001:004c9f20       _jwe_icbd                  008cdf20 f   fj90i:jwe_icbd.obj
 0001:004ca020       _jwe_icbdu                 008ce020 f   fj90i:jwe_icbd.obj
 0001:004ca0a0       _jwe_icbdr                 008ce0a0 f   fj90i:jwe_icbd.obj
 0001:004ca170       _jwe_ibtd                  008ce170 f   fj90i:jwe_ibtd.obj
 0001:004ca5d0       _jwe_ibtr                  008ce5d0 f   fj90i:jwe_ibtr.obj
 0001:004ca7c0       _jwe_ibtru                 008ce7c0 f   fj90i:jwe_ibtr.obj
 0001:004ca8e0       _jwe_ibtrr                 008ce8e0 f   fj90i:jwe_ibtr.obj
 0001:004caad0       _jwe_irpp                  008cead0 f   fj90i:jwe_irpp.obj
 0001:004cb140       _jwe_isdp                  008cf140 f   fj90i:jwe_isdp.obj
 0001:004cb320       _jwe_isd1                  008cf320 f   fj90i:jwe_isdp.obj
 0001:004cb400       _jwe_isd2                  008cf400 f   fj90i:jwe_isdp.obj
 0001:004cb560       _jwe_isls                  008cf560 f   fj90i:jwe_isdp.obj
 0001:004cb5b0       _jwe_irms                  008cf5b0 f   fj90i:jwe_irms.obj
 0001:004cb700       _jwe_inis                  008cf700 f   fj90i:jwe_inis.obj
 0001:004cb800       _jwe_iims                  008cf800 f   fj90i:jwe_iims.obj
 0001:004cb8b0       _jwe_icdb                  008cf8b0 f   fj90i:jwe_icdb.obj
 0001:004cba40       _jwe_icdbu                 008cfa40 f   fj90i:jwe_icdb.obj
 0001:004cbb10       _jwe_idtb                  008cfb10 f   fj90i:jwe_idtb.obj
 0001:004cbd40       _jwe_idtbu                 008cfd40 f   fj90i:jwe_idtb.obj
 0001:004cbf00       _jwe_idtr                  008cff00 f   fj90i:jwe_idtr.obj
 0001:004cc070       _jwe_idtru                 008d0070 f   fj90i:jwe_idtr.obj
 0001:004cc170       _jwe_iczb                  008d0170 f   fj90i:jwe_iczb.obj
 0001:004cc3b0       _jwe_icbb                  008d03b0 f   fj90i:jwe_icbb.obj
 0001:004cc4e0       _jwe_icob                  008d04e0 f   fj90i:jwe_icob.obj
 0001:004cc7c0       _jwe_igrr                  008d07c0 f   fj90i:jwe_igrr.obj
 0001:004ccd60       _jwe_iedp                  008d0d60 f   fj90i:jwe_iedp.obj
 0001:004ccf70       _jwe_ifal                  008d0f70 f   fj90i:jwe_ifal.obj
 0001:004cd130       _jwe_ifch                  008d1130 f   fj90i:jwe_ifch.obj
 0001:004cd290       _jwe_ioec                  008d1290 f   fj90i:jwe_ioec.obj
 0001:004cd690       _jwe_icps                  008d1690 f   fj90i:jwe_icps.obj
 0001:004cde00       _jwe_icpt                  008d1e00 f   fj90i:jwe_icpt.obj
 0001:004ce5c0       _jwe_ifps                  008d25c0 f   fj90i:jwe_ifps.obj
 0001:004ceb20       _jwe_ifcr                  008d2b20 f   fj90i:jwe_ifcr.obj
 0001:004cebc0       _jwe_iefn                  008d2bc0 f   fj90i:jwe_iefn.obj
 0001:004ced30       _jwe_ifcs                  008d2d30 f   fj90i:jwe_ifcs.obj
 0001:004cee20       _jwe_ifcl                  008d2e20 f   fj90i:jwe_ifcl.obj
 0001:004cfbc0       _jwe_ifan                  008d3bc0 f   fj90i:jwe_ifan.obj
 0001:004cfd80       _jwe_dgui                  008d3d80 f   fj90i:jwe_dgui.obj
 0001:004cfd90       _jwe_icfn                  008d3d90 f   fj90i:jwe_icfn.obj
 0001:004cfe70       _jwe_ista                  008d3e70 f   fj90i:jwe_ista.obj
 0001:004cfea0       _jwe_ielo                  008d3ea0 f   fj90i:jwe_ielo.obj
 0001:004d0440       _jwe_inad                  008d4440 f   fj90i:jwe_inad.obj
 0001:004d2710       _jwe_inas                  008d6710 f   fj90i:jwe_inas.obj
 0001:004d3cf0       _jwe_indi                  008d7cf0 f   fj90i:jwe_inas.obj
 0001:004d4a30       _jwe_icft                  008d8a30 f   fj90i:jwe_icft.obj
 0001:004d82a0       _jwe_ecnv                  008dc2a0 f   fj90i:jwe_ecnv.obj
 0001:004d83d0       _jwe_xtyp                  008dc3d0 f   fj90i:jwe_xtyp.obj
 0001:004d8670       _jwe_xget_cpuid            008dc670 f   fj90i:jwe_xcpu.obj
 0001:004d8770       _jwe_idcf                  008dc770 f   fj90i:jwe_idcf.obj
 0001:004d8bf0       _jwe_ifop                  008dcbf0 f   fj90i:jwe_ifop.obj
 0001:004d9aa0       _jwe_errr                  008ddaa0 f   fj90i:jwe_errr.obj
 0001:004da2e0       _jwe_einf                  008de2e0 f   fj90i:jwe_einf.obj
 0001:004da630       _jwe_eitm                  008de630 f   fj90i:jwe_eitm.obj
 0001:004da660       _jwe_xpac                  008de660 f   fj90i:jwe_xpac.obj
 0001:004da860       _jwe_iged                  008de860 f   fj90i:jwe_iend.obj
 0001:004daaa0       _jwe_ieed                  008deaa0 f   fj90i:jwe_iend.obj
 0001:004dab40       _jwe_xfpe                  008deb40 f   fj90i:jwe_xfpe.obj
 0001:004dac20       _jwe_xsko                  008dec20 f   fj90i:jwe_xsko.obj
 0001:004dac50       _jwe_xacv                  008dec50 f   fj90i:jwe_xacv.obj
 0001:004dac80       _jwe_xacd                  008dec80 f   fj90i:jwe_xacd.obj
 0001:004dac90       _jwe_xesm                  008dec90 f   fj90i:jwe_xesm.obj
 0001:004dad30       _jwe_etbm                  008ded30 f   fj90i:jwe_etbm.obj
 0001:004dc010       _jwe_xill                  008e0010 f   fj90i:jwe_xill.obj
 0001:004dc040       _jwe_xrdy                  008e0040 f   fj90i:jwe_xrdy.obj
 0001:004dc050       _jwe_ijdj                  008e0050 f   fj90i:jwe_ijdj.obj
 0001:004dc2b0       _jwe_imdj                  008e02b0 f   fj90i:jwe_imdj.obj
 0001:004dc300       _jwe_imdju                 008e0300 f   fj90i:jwe_imdj.obj
 0001:004dc360       _jwe_ifvsv                 008e0360 f   fj90i:jwe_imdj.obj
 0001:004dc3c0       _jwe_ifvdu                 008e03c0 f   fj90i:jwe_imdj.obj
 0001:004dc500       _jwe_ifvdv                 008e0500 f   fj90i:jwe_imdj.obj
 0001:004dc680       _jwe_iicn                  008e0680 f   fj90i:jwe_iicn.obj
 0001:004dc9c0       _jwe_irpd                  008e09c0 f   fj90i:jwe_irpd.obj
 0001:004dcf40       _jwe_irp1                  008e0f40 f   fj90i:jwe_irpd.obj
 0001:004dd000       _jwe_irp2                  008e1000 f   fj90i:jwe_irpd.obj
 0001:004dd1d0       _jwe_ijad                  008e11d0 f   fj90i:jwe_ijad.obj
 0001:004dd250       _jwe_ijmj                  008e1250 f   fj90i:jwe_ijmj.obj
 0001:004dd3a0       _jwe_xarg                  008e13a0 f   fj90i:jwe_xarg.obj
 0001:004dd4e0       _jwe_idpa                  008e14e0 f   fj90i:jwe_idpa.obj
 0001:004de290       _jwe_idpb                  008e2290 f   fj90i:jwe_idpa.obj
 0001:004de480       _jwe_idpe                  008e2480 f   fj90i:jwe_idpa.obj
 0001:004de5a0       _jwe_idga                  008e25a0 f   fj90i:jwe_idga.obj
 0001:004dec60       _jwe_idpt                  008e2c60 f   fj90i:jwe_idpt.obj
 0001:004df880       _jwe_idft                  008e3880 f   fj90i:jwe_idpt.obj
 0001:004dfa60       _jwe_idgt                  008e3a60 f   fj90i:jwe_idgt.obj
 0001:004e0120       _jwe_iupd                  008e4120 f   fj90i:jwe_iupd.obj
 0001:004e07d0       _jwe_iupd_error            008e47d0 f   fj90i:jwe_iupd.obj
 0001:004e0870       _jwe_iugd                  008e4870 f   fj90i:jwe_iugd.obj
 0001:004e0cd0       _jwe_ibpd                  008e4cd0 f   fj90i:jwe_ibpd.obj
 0001:004e0fe0       _jwe_ibgd                  008e4fe0 f   fj90i:jwe_ibgd.obj
 0001:004e1180       _jwe_ifpf                  008e5180 f   fj90i:jwe_ifpf.obj
 0001:004e1db0       _jwe_icpf                  008e5db0 f   fj90i:jwe_icpf.obj
 0001:004e2d00       _jwe_ifgf                  008e6d00 f   fj90i:jwe_ifgf.obj
 0001:004e3480       _jwe_ipfd                  008e7480 f   fj90i:jwe_ipfd.obj
 0001:004e41a0       _jwe_itfn                  008e81a0 f   fj90i:jwe_itfn.obj
 0001:004e44e0       _jwe_iifd                  008e84e0 f   fj90i:jwe_iifd.obj
 0001:004e47f0       _jwe_igfd                  008e87f0 f   fj90i:jwe_igfd.obj
 0001:004e4b70       _jwe_itfd                  008e8b70 f   fj90i:jwe_itfd.obj
 0001:004e5040       _jwe_isfd                  008e9040 f   fj90i:jwe_isfd.obj
 0001:004e51c0       _jwe_irfd                  008e91c0 f   fj90i:jwe_irfd.obj
 0001:004e52b0       _jwe_ibfd                  008e92b0 f   fj90i:jwe_ibfd.obj
 0001:004e5fc0       _jwe_ifgs                  008e9fc0 f   fj90i:jwe_ifgs.obj
 0001:004e6190       _jwe_ifga                  008ea190 f   fj90i:jwe_ifga.obj
 0001:004e6240       _jwe_ipsd                  008ea240 f   fj90i:jwe_ipsd.obj
 0001:004e6950       _jwe_ipad                  008ea950 f   fj90i:jwe_ipad.obj
 0001:004e6980       _jwe_itsn                  008ea980 f   fj90i:jwe_itsn.obj
 0001:004e6a70       _jwe_ifpa                  008eaa70 f   fj90i:jwe_ifpa.obj
 0001:004e6b50       _jwe_igsd                  008eab50 f   fj90i:jwe_igsd.obj
 0001:004e6cf0       _jwe_itsd                  008eacf0 f   fj90i:jwe_itsd.obj
 0001:004e6e00       _jwe_issd                  008eae00 f   fj90i:jwe_issd.obj
 0001:004e6e60       _jwe_irsd                  008eae60 f   fj90i:jwe_irsd.obj
 0001:004e6eb0       _jwe_ibsd                  008eaeb0 f   fj90i:jwe_ibsd.obj
 0001:004e70d0       _jwe_emsg                  008eb0d0 f   fj90i:jwe_emsg.obj
 0001:004e8030       _jwe_egtb                  008ec030 f   fj90i:jwe_ertb.obj
 0001:004e8040       _jwe_ebtl                  008ec040 f   fj90i:jwe_ertb.obj
 0001:004e8050       _jwe_etbl                  008ec050 f   fj90i:jwe_etbl.obj
 0001:004e8080       _jwe_etbe                  008ec080 f   fj90i:jwe_etbe.obj
 0001:004e8180       _jwe_etbn                  008ec180 f   fj90i:jwe_etbn.obj
 0001:004e82a0       _jwe_etbg                  008ec2a0 f   fj90i:jwe_etbg.obj
 0001:004e8400       _jwe_etbs_dll              008ec400 f   fj90i:jwe_etbs.obj
 0001:004e8780       _jwe_etbs                  008ec780 f   fj90i:jwe_etbs.obj
 0001:004e8b30       _jwe_ijsb                  008ecb30 f   fj90i:jwe_ijsb.obj
 0001:004e8ba0       _jwe_itpt                  008ecba0 f   fj90i:jwe_itpt.obj
 0001:004e8c30       _jwe_etxt                  008ecc30 f   fj90i:jwe_etxt.obj
 0001:004e8c90       _jwe_etbf                  008ecc90 f   fj90i:jwe_etbf.obj
 0001:004e9090       _jwe_emso                  008ed090 f   fj90i:jwe_emso.obj
 0001:004e90a0       _jwe_emss                  008ed0a0 f   fj90i:jwe_emss.obj
 0001:004e90b0       _jwe_emsf                  008ed0b0 f   fj90i:jwe_emsf.obj
 0001:004e90c0       _jwe_emsi                  008ed0c0 f   fj90i:jwe_emsi.obj
 0001:004e90d0       _jwe_emsx                  008ed0d0 f   fj90i:jwe_emsx.obj
 0001:004e90e0       _jwe_ems5                  008ed0e0 f   fj90i:jwe_ems5.obj
 0001:004e90f0       _jwe_ems4                  008ed0f0 f   fj90i:jwe_ems4.obj
 0001:004e9100       _jwe_ems3                  008ed100 f   fj90i:jwe_ems3.obj
 0001:004e9110       _jwe_ems2                  008ed110 f   fj90i:jwe_ems2.obj
 0001:004e9120       _jwe_ems1                  008ed120 f   fj90i:jwe_ems1.obj
 0001:004e9130       __ftol                     008ed130 f   libc:ftol.obj
 0001:004e9160       __chkstk                   008ed160 f   libc:chkstk.obj
 0001:004e9160       __alloca_probe             008ed160 f   libc:chkstk.obj
 0001:004e9190       _memcpy                    008ed190 f   libc:memcpy.obj
 0001:004e94c5       _mainCRTStartup            008ed4c5 f   libc:crt0.obj
 0001:004e95a4       __amsg_exit                008ed5a4 f   libc:crt0.obj
 0001:004e95ed       __fpmath                   008ed5ed f   libc:fpinit.obj
 0001:004e9604       __fpclear                  008ed604 f   libc:fpinit.obj
 0001:004e9605       __cfltcvt_init             008ed605 f   libc:fpinit.obj
 0001:004e963d       ___setfflag                008ed63d f   libc:fpinit.obj
 0001:004e9650       __allrem                   008ed650 f   libc:llrem.obj
 0001:004e9702       __statusfp                 008ed702 f   libc:ieee87.obj
 0001:004e9715       __clearfp                  008ed715 f   libc:ieee87.obj
 0001:004e9729       __control87                008ed729 f   libc:ieee87.obj
 0001:004e975e       __controlfp                008ed75e f   libc:ieee87.obj
 0001:004e9774       __fpreset                  008ed774 f   libc:ieee87.obj
 0001:004e98ee       ___initstdio               008ed8ee f   libc:_file.obj
 0001:004e9993       ___endstdio                008ed993 f   libc:_file.obj
 0001:004e99a7       __stati64                  008ed9a7 f   libc:stati64.obj
 0001:004e9ce6       _fflush                    008edce6 f   libc:fflush.obj
 0001:004e9d21       __flush                    008edd21 f   libc:fflush.obj
 0001:004e9d7d       __flushall                 008edd7d f   libc:fflush.obj
 0001:004e9df3       _printf                    008eddf3 f   libc:printf.obj
 0001:004e9e30       _strncpy                   008ede30 f   libc:strncpy.obj
 0001:004e9f2e       _getenv                    008edf2e f   libc:getenv.obj
 0001:004e9fab       _strtol                    008edfab f   libc:strtol.obj
 0001:004ea1ca       _strtoul                   008ee1ca f   libc:strtol.obj
 0001:004ea1e1       __isctype                  008ee1e1 f   libc:isctype.obj
 0001:004ea260       _memmove                   008ee260 f   libc:memmove.obj
 0001:004ea5a0       __CIpow                    008ee5a0 f   libc:pow.obj
 0001:004ea5b9       _pow                       008ee5b9 f   libc:pow.obj
 0001:004ea7bd       __tolower                  008ee7bd f   libc:tolower.obj
 0001:004ea7c5       _tolower                   008ee7c5 f   libc:tolower.obj
 0001:004ea890       _fputc                     008ee890 f   libc:fputc.obj
 0001:004ea8b4       _putc                      008ee8b4 f   libc:fputc.obj
 0001:004ea8c4       _sprintf                   008ee8c4 f   libc:sprintf.obj
 0001:004ea916       _fgets                     008ee916 f   libc:fgets.obj
 0001:004ea970       __allmul                   008ee970 f   libc:llmul.obj
 0001:004ea9a4       _atol                      008ee9a4 f   libc:atox.obj
 0001:004eaa2f       _atoi                      008eea2f f   libc:atox.obj
 0001:004eaa3a       __atoi64                   008eea3a f   libc:atox.obj
 0001:004eaaf4       _free                      008eeaf4 f   libc:free.obj
 0001:004eab5d       _malloc                    008eeb5d f   libc:malloc.obj
 0001:004eab6f       __nh_malloc                008eeb6f f   libc:malloc.obj
 0001:004eab9b       __heap_alloc               008eeb9b f   libc:malloc.obj
 0001:004eac0f       _fclose                    008eec0f f   libc:fclose.obj
 0001:004eac65       _fputs                     008eec65 f   libc:fputs.obj
 0001:004eaca8       __fsopen                   008eeca8 f   libc:fopen.obj
 0001:004eacc8       _fopen                     008eecc8 f   libc:fopen.obj
 0001:004eacdb       _abort                     008eecdb f   libc:abort.obj
 0001:004eacf2       __cinit                    008eecf2 f   libc:crt0dat.obj
 0001:004ead1f       _exit                      008eed1f f   libc:crt0dat.obj
 0001:004ead30       __exit                     008eed30 f   libc:crt0dat.obj
 0001:004ead41       __cexit                    008eed41 f   libc:crt0dat.obj
 0001:004ead50       __c_exit                   008eed50 f   libc:crt0dat.obj
 0001:004eae12       _isalpha                   008eee12 f   libc:_ctype.obj
 0001:004eae40       _isupper                   008eee40 f   libc:_ctype.obj
 0001:004eae68       _islower                   008eee68 f   libc:_ctype.obj
 0001:004eae90       _isdigit                   008eee90 f   libc:_ctype.obj
 0001:004eaeb8       _isxdigit                  008eeeb8 f   libc:_ctype.obj
 0001:004eaee5       _isspace                   008eeee5 f   libc:_ctype.obj
 0001:004eaf0d       _ispunct                   008eef0d f   libc:_ctype.obj
 0001:004eaf35       _isalnum                   008eef35 f   libc:_ctype.obj
 0001:004eaf63       _isprint                   008eef63 f   libc:_ctype.obj
 0001:004eaf91       _isgraph                   008eef91 f   libc:_ctype.obj
 0001:004eafbf       _iscntrl                   008eefbf f   libc:_ctype.obj
 0001:004eafe7       ___isascii                 008eefe7 f   libc:_ctype.obj
 0001:004eaff4       ___toascii                 008eeff4 f   libc:_ctype.obj
 0001:004eaffc       ___iscsymf                 008eeffc f   libc:_ctype.obj
 0001:004eb039       ___iscsym                  008ef039 f   libc:_ctype.obj
 0001:004eb076       __lseeki64                 008ef076 f   libc:lseeki64.obj
 0001:004eb127       _fseek                     008ef127 f   libc:fseek.obj
 0001:004eb1b3       _fread                     008ef1b3 f   libc:fread.obj
 0001:004eb29b       _ftell                     008ef29b f   libc:ftell.obj
 0001:004eb3f3       _strerror                  008ef3f3 f   libc:strerror.obj
 0001:004eb41f       _fwrite                    008ef41f f   libc:fwrite.obj
 0001:004eb529       __fstati64                 008ef529 f   libc:fstati64.obj
 0001:004eb7bd       __toupper                  008ef7bd f   libc:toupper.obj
 0001:004eb7c5       _toupper                   008ef7c5 f   libc:toupper.obj
 0001:004eb8a0       _strncat                   008ef8a0 f   libc:strncat.obj
 0001:004eb9d0       _memcmp                    008ef9d0 f   libc:memcmp.obj
 0001:004eba7c       _setvbuf                   008efa7c f   libc:setvbuf.obj
 0001:004ebb20       __alldiv                   008efb20 f   libc:lldiv.obj
 0001:004ebbd0       _strncmp                   008efbd0 f   libc:strncmp.obj
 0001:004ebc08       _realloc                   008efc08 f   libc:realloc.obj
 0001:004ebea8       __flsbuf                   008efea8 f   libc:_flsbuf.obj
 0001:004ebfbd       _clearerr                  008effbd f   libc:clearerr.obj
 0001:004ebfeb       _rewind                    008effeb f   libc:rewind.obj
 0001:004ec03f       __XcptFilter               008f003f f   libc:winxfltr.obj
 0001:004ec1c3       __setenvp                  008f01c3 f   libc:stdenvp.obj
 0001:004ec27c       __setargv                  008f027c f   libc:stdargv.obj
 0001:004ec4c9       ___crtGetEnvironmentStringsA 008f04c9 f   libc:a_env.obj
 0001:004ec5fb       __ioinit                   008f05fb f   libc:ioinit.obj
 0001:004ec7a6       __ioterm                   008f07a6 f   libc:ioinit.obj
 0001:004ec7c9       __GetLinkerVersion         008f07c9 f   libc:heapinit.obj
 0001:004ec7f6       ___heap_select             008f07f6 f   libc:heapinit.obj
 0001:004ec93e       __heap_init                008f093e f   libc:heapinit.obj
 0001:004ec99b       __heap_term                008f099b f   libc:heapinit.obj
 0001:004eca44       __global_unwind2           008f0a44 f   libc:exsup.obj
 0001:004eca86       __local_unwind2            008f0a86 f   libc:exsup.obj
 0001:004ecade       __NLG_Return2              008f0ade f   libc:exsup.obj
 0001:004ecaee       __abnormal_termination     008f0aee f   libc:exsup.obj
 0001:004ecb11       __NLG_Notify1              008f0b11 f   libc:exsup.obj
 0001:004ecb1a       __NLG_Notify               008f0b1a f   libc:exsup.obj
 0001:004ecb2d       __NLG_Dispatch             008f0b2d f   libc:exsup.obj
 0001:004ecb3c       __except_handler3          008f0b3c f   libc:exsup3.obj
 0001:004ecbf9       __seh_longjmp_unwind@4     008f0bf9 f   libc:exsup3.obj
 0001:004ecc14       __FF_MSGBANNER             008f0c14 f   libc:crt0msg.obj
 0001:004ecc4d       __NMSG_WRITE               008f0c4d f   libc:crt0msg.obj
 0001:004ecda0       __GET_RTERRMSG             008f0da0 f   libc:crt0msg.obj
 0001:004ecdd1       __setdefaultprecision      008f0dd1 f   libc:fp8.obj
 0001:004ecde3       __ms_p5_test_fdiv          008f0de3 f   libc:testfdiv.obj
 0001:004ece21       __ms_p5_mp_test_fdiv       008f0e21 f   libc:testfdiv.obj
 0001:004ece4a       __forcdecpt                008f0e4a f   libc:cvt.obj
 0001:004ecea4       __cropzeros                008f0ea4 f   libc:cvt.obj
 0001:004ecef2       __positive                 008f0ef2 f   libc:cvt.obj
 0001:004ecf0a       __fassign                  008f0f0a f   libc:cvt.obj
 0001:004ecf48       __cftoe                    008f0f48 f   libc:cvt.obj
 0001:004ed04c       __cftof                    008f104c f   libc:cvt.obj
 0001:004ed12a       __cftog                    008f112a f   libc:cvt.obj
 0001:004ed20f       __cfltcvt                  008f120f f   libc:cvt.obj
 0001:004ed285       _calloc                    008f1285 f   libc:calloc.obj
 0001:004ed336       __fcloseall                008f1336 f   libc:closeall.obj
 0001:004ed38e       __dosmaperr                008f138e f   libc:dosmap.obj
 0001:004ed3f5       ___dtoxmode                008f13f5 f   libc:stat.obj
 0001:004ed4ad       __stat                     008f14ad f   libc:stat.obj
 0001:004ed4ad       _stat                      008f14ad f   libc:stat.obj
 0001:004ed7d0       ___loctotime_t             008f17d0 f   libc:dtoxtime.obj
 0001:004ed8a0       _strlen                    008f18a0 f   libc:strlen.obj
 0001:004ed91b       __fullpath                 008f191b f   libc:fullpath.obj
 0001:004ed9be       __getdrive                 008f19be f   libc:drive.obj
 0001:004eda01       __chdrive                  008f1a01 f   libc:drive.obj
 0001:004eda58       __mbctolower               008f1a58 f   libc:mbtolwr.obj
 0001:004edad3       __mbspbrk                  008f1ad3 f   libc:mbspbrk.obj
 0001:004edb58       __commit                   008f1b58 f   libc:commit.obj
 0001:004edbaf       __write                    008f1baf f   libc:write.obj
 0001:004edbaf       _write                     008f1baf f   libc:write.obj
 0001:004edd5c       __stbuf                    008f1d5c f   libc:_sftbuf.obj
 0001:004edde9       __ftbuf                    008f1de9 f   libc:_sftbuf.obj
 0001:004ede26       __output                   008f1e26 f   libc:output.obj
 0001:004ee630       __mbsnbicoll               008f2630 f   libc:mbsnbico.obj
 0001:004ee66f       ___wtomb_environ           008f266f f   libc:wtombenv.obj
 0001:004ee6dd       ___crtGetStringTypeA       008f26dd f   libc:a_str.obj
 0001:004ee841       __fFEXP                    008f2841 f   libc:87tran.obj
 0001:004ee8a8       __rtinfpopse               008f28a8 f   libc:87tran.obj
 0001:004ee8aa       __rtinfnpopse              008f28aa f   libc:87tran.obj
 0001:004ee8ba       __fFLN                     008f28ba f   libc:87tran.obj
 0001:004ee96f       __rtinfpop                 008f296f f   libc:87tran.obj
 0001:004ee971       __rtinfnpop                008f2971 f   libc:87tran.obj
 0001:004ee98e       __ffexpm1                  008f298e f   libc:87tran.obj
 0001:004eea40       __trandisp1                008f2a40 f   libc:87disp.obj
 0001:004eeaa7       __trandisp2                008f2aa7 f   libc:87disp.obj
 0001:004eeb33       __rttospopde               008f2b33 f   libc:87disp.obj
 0001:004eeb38       __rttospop                 008f2b38 f   libc:87disp.obj
 0001:004eeb3a       __rtnospop                 008f2b3a f   libc:87disp.obj
 0001:004eeb3c       __rttosnpop                008f2b3c f   libc:87disp.obj
 0001:004eeb3d       __rtnospopde               008f2b3d f   libc:87disp.obj
 0001:004eeb44       __rtzeropop                008f2b44 f   libc:87disp.obj
 0001:004eeb46       __rtzeronpop               008f2b46 f   libc:87disp.obj
 0001:004eeb4b       __rtonepop                 008f2b4b f   libc:87disp.obj
 0001:004eeb4d       __rtonenpop                008f2b4d f   libc:87disp.obj
 0001:004eeb52       __tosnan1                  008f2b52 f   libc:87disp.obj
 0001:004eeb7d       __nosnan2                  008f2b7d f   libc:87disp.obj
 0001:004eeb7f       __tosnan2                  008f2b7f f   libc:87disp.obj
 0001:004eeba7       __nan2                     008f2ba7 f   libc:87disp.obj
 0001:004eebe6       __rtindfpop                008f2be6 f   libc:87disp.obj
 0001:004eebe8       __rtindfnpop               008f2be8 f   libc:87disp.obj
 0001:004eebf9       __rttosnpopde              008f2bf9 f   libc:87disp.obj
 0001:004eec03       __rtchsifneg               008f2c03 f   libc:87disp.obj
 0001:004eec10       __startTwoArgErrorHandling 008f2c10 f   libc:genexcep.obj
 0001:004eec27       __startOneArgErrorHandling 008f2c27 f   libc:genexcep.obj
 0001:004eec70       __twoToTOS                 008f2c70 f   libc:common.obj
 0001:004eec85       __load_CW                  008f2c85 f   libc:common.obj
 0001:004eec9c       __convertTOStoQNaN         008f2c9c f   libc:common.obj
 0001:004eecb5       __fload_withFB             008f2cb5 f   libc:common.obj
 0001:004eecf8       __checkTOS_withFB          008f2cf8 f   libc:common.obj
 0001:004eed0e       __fast_exit                008f2d0e f   libc:common.obj
 0001:004eed1b       __math_exit                008f2d1b f   libc:common.obj
 0001:004eed45       __check_overflow_exit      008f2d45 f   libc:common.obj
 0001:004eed59       __check_range_exit         008f2d59 f   libc:common.obj
 0001:004eedfc       __powhlp                   008f2dfc f   libc:powhlp.obj
 0001:004eef2c       __d_inttype                008f2f2c f   libc:powhlp.obj
 0001:004eef91       ___crtLCMapStringA         008f2f91 f   libc:a_map.obj
 0001:004ef1e0       __filbuf                   008f31e0 f   libc:_filbuf.obj
 0001:004ef2b9       __get_sbh_threshold        008f32b9 f   libc:sbheap.obj
 0001:004ef2d8       __set_sbh_threshold        008f32d8 f   libc:sbheap.obj
 0001:004ef38b       ___sbh_heap_init           008f338b f   libc:sbheap.obj
 0001:004ef3d3       ___sbh_find_block          008f33d3 f   libc:sbheap.obj
 0001:004ef3fe       ___sbh_free_block          008f33fe f   libc:sbheap.obj
 0001:004ef727       ___sbh_alloc_block         008f3727 f   libc:sbheap.obj
 0001:004efa30       ___sbh_alloc_new_region    008f3a30 f   libc:sbheap.obj
 0001:004efae1       ___sbh_alloc_new_group     008f3ae1 f   libc:sbheap.obj
 0001:004efbdc       ___sbh_resize_block        008f3bdc f   libc:sbheap.obj
 0001:004efed2       ___sbh_heapmin             008f3ed2 f   libc:sbheap.obj
 0001:004effa3       ___sbh_heap_check          008f3fa3 f   libc:sbheap.obj
 0001:004f02d2       __get_old_sbh_threshold    008f42d2 f   libc:sbheap.obj
 0001:004f02d8       __set_old_sbh_threshold    008f42d8 f   libc:sbheap.obj
 0001:004f02f4       ___old_sbh_new_region      008f42f4 f   libc:sbheap.obj
 0001:004f0438       ___old_sbh_release_region  008f4438 f   libc:sbheap.obj
 0001:004f048e       ___old_sbh_decommit_pages  008f448e f   libc:sbheap.obj
 0001:004f0550       ___old_sbh_find_block      008f4550 f   libc:sbheap.obj
 0001:004f05a7       ___old_sbh_free_block      008f45a7 f   libc:sbheap.obj
 0001:004f05ec       ___old_sbh_alloc_block     008f45ec f   libc:sbheap.obj
 0001:004f07f4       ___old_sbh_alloc_block_from_page 008f47f4 f   libc:sbheap.obj
 0001:004f0918       ___old_sbh_resize_block    008f4918 f   libc:sbheap.obj
 0001:004f09c1       ___old_sbh_heap_check      008f49c1 f   libc:sbheap.obj
 0001:004f0b1f       ?_set_new_handler@@YAP6AHI@ZP6AHI@Z@Z 008f4b1f f   libc:handler.obj
 0001:004f0b2f       ?_query_new_handler@@YAP6AHI@ZXZ 008f4b2f f   libc:handler.obj
 0001:004f0b35       __callnewh                 008f4b35 f   libc:handler.obj
 0001:004f0b50       _close                     008f4b50 f   libc:close.obj
 0001:004f0b50       __close                    008f4b50 f   libc:close.obj
 0001:004f0c03       __freebuf                  008f4c03 f   libc:_freebuf.obj
 0001:004f0c2e       __openfile                 008f4c2e f   libc:_open.obj
 0001:004f0d9e       __getstream                008f4d9e f   libc:stream.obj
 0001:004f0e16       _signal                    008f4e16 f   libc:winsig.obj
 0001:004f0f5a       _raise                     008f4f5a f   libc:winsig.obj
 0001:004f10cc       __alloc_osfhnd             008f50cc f   libc:osfinfo.obj
 0001:004f1161       __set_osfhnd               008f5161 f   libc:osfinfo.obj
 0001:004f11d8       __free_osfhnd              008f51d8 f   libc:osfinfo.obj
 0001:004f1252       __get_osfhandle            008f5252 f   libc:osfinfo.obj
 0001:004f128f       __open_osfhandle           008f528f f   libc:osfinfo.obj
 0001:004f132c       __lseek                    008f532c f   libc:lseek.obj
 0001:004f132c       _lseek                     008f532c f   libc:lseek.obj
 0001:004f13c6       _read                      008f53c6 f   libc:read.obj
 0001:004f13c6       __read                     008f53c6 f   libc:read.obj
 0001:004f15c0       _strcpy                    008f55c0 f   libc:strcat.obj
 0001:004f15d0       _strcat                    008f55d0 f   libc:strcat.obj
 0001:004f16b0       __getbuf                   008f56b0 f   libc:_getbuf.obj
 0001:004f16f4       _isatty                    008f56f4 f   libc:isatty.obj
 0001:004f16f4       __isatty                   008f56f4 f   libc:isatty.obj
 0001:004f171a       __setmbcp                  008f571a f   libc:mbctype.obj
 0001:004f1ade       __getmbcp                  008f5ade f   libc:mbctype.obj
 0001:004f1aee       ___initmbctable            008f5aee f   libc:mbctype.obj
 0001:004f1b20       _strchr                    008f5b20 f   libc:strchr.obj
 0001:004f1b26       ___from_strstr_to_strchr   008f5b26 f   libc:strchr.obj
 0001:004f1be0       _strstr                    008f5be0 f   libc:strstr.obj
 0001:004f1c60       ___crtMessageBoxA          008f5c60 f   libc:crtmbox.obj
 0001:004f1ce9       __ZeroTail                 008f5ce9 f   libc:intrncvt.obj
 0001:004f1d32       __IncMan                   008f5d32 f   libc:intrncvt.obj
 0001:004f1d88       __RoundMan                 008f5d88 f   libc:intrncvt.obj
 0001:004f1e14       __CopyMan                  008f5e14 f   libc:intrncvt.obj
 0001:004f1e2f       __FillZeroMan              008f5e2f f   libc:intrncvt.obj
 0001:004f1e3b       __IsZeroMan                008f5e3b f   libc:intrncvt.obj
 0001:004f1e56       __ShrMan                   008f5e56 f   libc:intrncvt.obj
 0001:004f1ee3       __ld12cvt                  008f5ee3 f   libc:intrncvt.obj
 0001:004f204f       __ld12tod                  008f604f f   libc:intrncvt.obj
 0001:004f2065       __ld12tof                  008f6065 f   libc:intrncvt.obj
 0001:004f207b       __ld12told                 008f607b f   libc:intrncvt.obj
 0001:004f20f5       __atodbl                   008f60f5 f   libc:intrncvt.obj
 0001:004f2122       __atoldbl                  008f6122 f   libc:intrncvt.obj
 0001:004f2150       __atoflt                   008f6150 f   libc:intrncvt.obj
 0001:004f217d       __fptostr                  008f617d f   libc:_fptostr.obj
 0001:004f21f4       __fltout                   008f61f4 f   libc:cfout.obj
 0001:004f2258       ___dtold                   008f6258 f   libc:cfout.obj
 0001:004f2310       _memset                    008f6310 f   libc:memset.obj
 0001:004f2368       __fptrap                   008f6368 f   libc:crt0fp.obj
 0001:004f2371       __mbsicmp                  008f6371 f   libc:mbsicmp.obj
 0001:004f24df       __mbsrchr                  008f64df f   libc:mbsrchr.obj
 0001:004f253f       ___tzset                   008f653f f   libc:tzset.obj
 0001:004f2554       __tzset                    008f6554 f   libc:tzset.obj
 0001:004f27b2       __isindst                  008f67b2 f   libc:tzset.obj
 0001:004f2a9e       __getcwd                   008f6a9e f   libc:getcwd.obj
 0001:004f2a9e       _getcwd                    008f6a9e f   libc:getcwd.obj
 0001:004f2ab1       __getdcwd                  008f6ab1 f   libc:getcwd.obj
 0001:004f2b82       __validdrive               008f6b82 f   libc:getcwd.obj
 0001:004f2bc0       _strpbrk                   008f6bc0 f   libc:strpbrk.obj
 0001:004f2bfa       _wctomb                    008f6bfa f   libc:wctomb.obj
 0001:004f2c70       __aulldiv                  008f6c70 f   libc:ulldiv.obj
 0001:004f2ce0       __aullrem                  008f6ce0 f   libc:ullrem.obj
 0001:004f2d55       ___crtCompareStringA       008f6d55 f   libc:a_cmp.obj
 0001:004f2ffd       ___crtsetenv               008f6ffd f   libc:setenv.obj
 0001:004f3250       _fdiv_main_routine         008f7250 f   libc:adj_fdiv.obj
 0001:004f3367       __adj_fdiv_r               008f7367 f   libc:adj_fdiv.obj
 0001:004f3806       __fdivp_sti_st             008f7806 f   libc:adj_fdiv.obj
 0001:004f3819       __fdivrp_sti_st            008f7819 f   libc:adj_fdiv.obj
 0001:004f382c       __adj_fdiv_m32             008f782c f   libc:adj_fdiv.obj
 0001:004f3878       __adj_fdiv_m64             008f7878 f   libc:adj_fdiv.obj
 0001:004f38c4       __adj_fdiv_m16i            008f78c4 f   libc:adj_fdiv.obj
 0001:004f38f8       __adj_fdiv_m32i            008f78f8 f   libc:adj_fdiv.obj
 0001:004f392c       __adj_fdivr_m32            008f792c f   libc:adj_fdiv.obj
 0001:004f3978       __adj_fdivr_m64            008f7978 f   libc:adj_fdiv.obj
 0001:004f39c4       __adj_fdivr_m16i           008f79c4 f   libc:adj_fdiv.obj
 0001:004f39f8       __adj_fdivr_m32i           008f79f8 f   libc:adj_fdiv.obj
 0001:004f3a2c       __safe_fdiv                008f7a2c f   libc:adj_fdiv.obj
 0001:004f3a41       __safe_fdivr               008f7a41 f   libc:adj_fdiv.obj
 0001:004f3a56       __fprem_common             008f7a56 f   libc:adj_fdiv.obj
 0001:004f3c5c       __adj_fprem                008f7c5c f   libc:adj_fdiv.obj
 0001:004f3d0e       __fprem1_common            008f7d0e f   libc:adj_fdiv.obj
 0001:004f3f14       __adj_fprem1               008f7f14 f   libc:adj_fdiv.obj
 0001:004f3fc9       __safe_fprem               008f7fc9 f   libc:adj_fdiv.obj
 0001:004f3fcf       __safe_fprem1              008f7fcf f   libc:adj_fdiv.obj
 0001:004f3fd5       __adj_fpatan               008f7fd5 f   libc:adj_fdiv.obj
 0001:004f3fd8       __adj_fptan                008f7fd8 f   libc:adj_fdiv.obj
 0001:004f3fdb       __87except                 008f7fdb f   libc:87except.obj
 0001:004f40ab       __set_exp                  008f80ab f   libc:util.obj
 0001:004f40d4       __get_exp                  008f80d4 f   libc:util.obj
 0001:004f40e8       __add_exp                  008f80e8 f   libc:util.obj
 0001:004f4114       __set_bexp                 008f8114 f   libc:util.obj
 0001:004f4138       __sptype                   008f8138 f   libc:util.obj
 0001:004f4192       __decomp                   008f8192 f   libc:util.obj
 0001:004f4253       __frnd                     008f8253 f   libc:frnd.obj
 0001:004f4265       __copysign                 008f8265 f   libc:ieeemisc.obj
 0001:004f4286       __chgsign                  008f8286 f   libc:ieeemisc.obj
 0001:004f42ab       __scalb                    008f82ab f   libc:ieeemisc.obj
 0001:004f42c1       __logb                     008f82c1 f   libc:ieeemisc.obj
 0001:004f43a8       __nextafter                008f83a8 f   libc:ieeemisc.obj
 0001:004f463d       __finite                   008f863d f   libc:ieeemisc.obj
 0001:004f4651       __isnan                    008f8651 f   libc:ieeemisc.obj
 0001:004f467f       __fpclass                  008f867f f   libc:ieeemisc.obj
 0001:004f4711       __open                     008f8711 f   libc:open.obj
 0001:004f4711       _open                      008f8711 f   libc:open.obj
 0001:004f4728       __sopen                    008f8728 f   libc:open.obj
 0001:004f49e1       ___addl                    008f89e1 f   libc:mantold.obj
 0001:004f4a02       ___add_12                  008f8a02 f   libc:mantold.obj
 0001:004f4a60       ___shl_12                  008f8a60 f   libc:mantold.obj
 0001:004f4a8e       ___shr_12                  008f8a8e f   libc:mantold.obj
 0001:004f4abb       ___mtold12                 008f8abb f   libc:mantold.obj
 0001:004f4b82       ___strgtold12              008f8b82 f   libc:strgtold.obj
 0001:004f5053       ___STRINGTOLD              008f9053 f   libc:strgtold.obj
 0001:004f508f       _$I10_OUTPUT               008f908f f   libc:x10fout.obj
 0001:004f5330       __stricmp                  008f9330 f   libc:stricmp.obj
 0001:004f5330       __strcmpi                  008f9330 f   libc:stricmp.obj
 0001:004f53c0       _strrchr                   008f93c0 f   libc:strrchr.obj
 0001:004f53f0       _strcmp                    008f93f0 f   libc:strcmp.obj
 0001:004f5474       __mbschr                   008f9474 f   libc:mbschr.obj
 0001:004f54e7       __strdup                   008f94e7 f   libc:strdup.obj
 0001:004f5512       __handle_qnan1             008f9512 f   libc:fpexcept.obj
 0001:004f5565       __handle_qnan2             008f9565 f   libc:fpexcept.obj
 0001:004f55c4       __except1                  008f95c4 f   libc:fpexcept.obj
 0001:004f565c       __except2                  008f965c f   libc:fpexcept.obj
 0001:004f5701       __raise_exc                008f9701 f   libc:fpexcept.obj
 0001:004f59b4       __handle_exc               008f99b4 f   libc:fpexcept.obj
 0001:004f5bcb       __umatherr                 008f9bcb f   libc:fpexcept.obj
 0001:004f5c53       __set_errno                008f9c53 f   libc:fpexcept.obj
 0001:004f5c9e       __errcode                  008f9c9e f   libc:fpexcept.obj
 0001:004f5ccb       __matherr                  008f9ccb f   libc:matherr.obj
 0001:004f5cce       __statfp                   008f9cce f   libc:fpctrl.obj
 0001:004f5cdc       __clrfp                    008f9cdc f   libc:fpctrl.obj
 0001:004f5ceb       __ctrlfp                   008f9ceb f   libc:fpctrl.obj
 0001:004f5d0e       __set_statfp               008f9d0e f   libc:fpctrl.obj
 0001:004f5d64       _ldexp                     008f9d64 f   libc:ldexp.obj
 0001:004f5f4a       __chsize                   008f9f4a f   libc:chsize.obj
 0001:004f6090       ___ld12mul                 008fa090 f   libc:tenpow.obj
 0001:004f62b0       ___multtenpow12            008fa2b0 f   libc:tenpow.obj
 0001:004f632c       __setmode                  008fa32c f   libc:setmode.obj
 0001:004f63a2       _MessageBoxA@16            008fa3a2 f   user32:USER32.dll
 0001:004f63b0       _GetTimeZoneInformation@4  008fa3b0 f   kernel32:KERNEL32.dll
 0001:004f63b6       _GetLocalTime@4            008fa3b6 f   kernel32:KERNEL32.dll
 0001:004f63bc       _GetCommandLineA@0         008fa3bc f   kernel32:KERNEL32.dll
 0001:004f63c2       _AllocConsole@0            008fa3c2 f   kernel32:KERNEL32.dll
 0001:004f63c8       _GetStdHandle@4            008fa3c8 f   kernel32:KERNEL32.dll
 0001:004f63ce       _QueryPerformanceCounter@4 008fa3ce f   kernel32:KERNEL32.dll
 0001:004f63d4       _QueryPerformanceFrequency@4 008fa3d4 f   kernel32:KERNEL32.dll
 0001:004f63da       _GetVersionExA@4           008fa3da f   kernel32:KERNEL32.dll
 0001:004f63e0       _GetProcAddress@8          008fa3e0 f   kernel32:KERNEL32.dll
 0001:004f63e6       _GetModuleHandleA@4        008fa3e6 f   kernel32:KERNEL32.dll
 0001:004f63ec       _ReadFile@20               008fa3ec f   kernel32:KERNEL32.dll
 0001:004f63f2       _GetLastError@0            008fa3f2 f   kernel32:KERNEL32.dll
 0001:004f63f8       _SetFilePointer@16         008fa3f8 f   kernel32:KERNEL32.dll
 0001:004f63fe       _FormatMessageA@28         008fa3fe f   kernel32:KERNEL32.dll
 0001:004f6404       _DeleteFileA@4             008fa404 f   kernel32:KERNEL32.dll
 0001:004f640a       _WriteFile@20              008fa40a f   kernel32:KERNEL32.dll
 0001:004f6410       _CreateFileA@28            008fa410 f   kernel32:KERNEL32.dll
 0001:004f6416       _CloseHandle@4             008fa416 f   kernel32:KERNEL32.dll
 0001:004f641c       _GetFileSize@8             008fa41c f   kernel32:KERNEL32.dll
 0001:004f6422       _UnmapViewOfFile@4         008fa422 f   kernel32:KERNEL32.dll
 0001:004f6428       _IsBadReadPtr@8            008fa428 f   kernel32:KERNEL32.dll
 0001:004f642e       _MapViewOfFile@20          008fa42e f   kernel32:KERNEL32.dll
 0001:004f6434       _CreateFileMappingA@24     008fa434 f   kernel32:KERNEL32.dll
 0001:004f643a       _GetFileType@4             008fa43a f   kernel32:KERNEL32.dll
 0001:004f6440       _GetFileAttributesA@4      008fa440 f   kernel32:KERNEL32.dll
 0001:004f6446       _SearchPathA@24            008fa446 f   kernel32:KERNEL32.dll
 0001:004f644c       _LoadLibraryExA@12         008fa44c f   kernel32:KERNEL32.dll
 0001:004f6452       _GetVersion@0              008fa452 f   kernel32:KERNEL32.dll
 0001:004f6458       _ExitProcess@4             008fa458 f   kernel32:KERNEL32.dll
 0001:004f645e       _FindClose@4               008fa45e f   kernel32:KERNEL32.dll
 0001:004f6464       _FileTimeToSystemTime@8    008fa464 f   kernel32:KERNEL32.dll
 0001:004f646a       _FileTimeToLocalFileTime@8 008fa46a f   kernel32:KERNEL32.dll
 0001:004f6470       _GetDriveTypeA@4           008fa470 f   kernel32:KERNEL32.dll
 0001:004f6476       _FindFirstFileA@8          008fa476 f   kernel32:KERNEL32.dll
 0001:004f647c       _HeapFree@12               008fa47c f   kernel32:KERNEL32.dll
 0001:004f6482       _HeapAlloc@12              008fa482 f   kernel32:KERNEL32.dll
 0001:004f6488       _TerminateProcess@8        008fa488 f   kernel32:KERNEL32.dll
 0001:004f648e       _GetCurrentProcess@0       008fa48e f   kernel32:KERNEL32.dll
 0001:004f6494       _GetFileInformationByHandle@8 008fa494 f   kernel32:KERNEL32.dll
 0001:004f649a       _PeekNamedPipe@24          008fa49a f   kernel32:KERNEL32.dll
 0001:004f64a0       _HeapReAlloc@16            008fa4a0 f   kernel32:KERNEL32.dll
 0001:004f64a6       _UnhandledExceptionFilter@4 008fa4a6 f   kernel32:KERNEL32.dll
 0001:004f64ac       _GetModuleFileNameA@12     008fa4ac f   kernel32:KERNEL32.dll
 0001:004f64b2       _FreeEnvironmentStringsA@4 008fa4b2 f   kernel32:KERNEL32.dll
 0001:004f64b8       _FreeEnvironmentStringsW@4 008fa4b8 f   kernel32:KERNEL32.dll
 0001:004f64be       _WideCharToMultiByte@32    008fa4be f   kernel32:KERNEL32.dll
 0001:004f64c4       _GetEnvironmentStrings@0   008fa4c4 f   kernel32:KERNEL32.dll
 0001:004f64ca       _GetEnvironmentStringsW@0  008fa4ca f   kernel32:KERNEL32.dll
 0001:004f64d0       _SetHandleCount@4          008fa4d0 f   kernel32:KERNEL32.dll
 0001:004f64d6       _GetStartupInfoA@4         008fa4d6 f   kernel32:KERNEL32.dll
 0001:004f64dc       _GetEnvironmentVariableA@12 008fa4dc f   kernel32:KERNEL32.dll
 0001:004f64e2       _HeapDestroy@4             008fa4e2 f   kernel32:KERNEL32.dll
 0001:004f64e8       _HeapCreate@12             008fa4e8 f   kernel32:KERNEL32.dll
 0001:004f64ee       _VirtualFree@12            008fa4ee f   kernel32:KERNEL32.dll
 0001:004f64f4       _RtlUnwind@16              008fa4f4 f   kernel32:KERNEL32.dll
 0001:004f64fa       _GetFullPathNameA@16       008fa4fa f   kernel32:KERNEL32.dll
 0001:004f6500       _GetCurrentDirectoryA@8    008fa500 f   kernel32:KERNEL32.dll
 0001:004f6506       _SetCurrentDirectoryA@4    008fa506 f   kernel32:KERNEL32.dll
 0001:004f650c       _FlushFileBuffers@4        008fa50c f   kernel32:KERNEL32.dll
 0001:004f6512       _MultiByteToWideChar@24    008fa512 f   kernel32:KERNEL32.dll
 0001:004f6518       _GetStringTypeA@20         008fa518 f   kernel32:KERNEL32.dll
 0001:004f651e       _GetStringTypeW@16         008fa51e f   kernel32:KERNEL32.dll
 0001:004f6524       _LCMapStringA@24           008fa524 f   kernel32:KERNEL32.dll
 0001:004f652a       _LCMapStringW@24           008fa52a f   kernel32:KERNEL32.dll
 0001:004f6530       _VirtualAlloc@16           008fa530 f   kernel32:KERNEL32.dll
 0001:004f6536       _IsBadWritePtr@8           008fa536 f   kernel32:KERNEL32.dll
 0001:004f653c       _SetConsoleCtrlHandler@8   008fa53c f   kernel32:KERNEL32.dll
 0001:004f6542       _SetStdHandle@8            008fa542 f   kernel32:KERNEL32.dll
 0001:004f6548       _GetCPInfo@8               008fa548 f   kernel32:KERNEL32.dll
 0001:004f654e       _GetACP@0                  008fa54e f   kernel32:KERNEL32.dll
 0001:004f6554       _GetOEMCP@0                008fa554 f   kernel32:KERNEL32.dll
 0001:004f655a       _LoadLibraryA@4            008fa55a f   kernel32:KERNEL32.dll
 0001:004f6560       _CompareStringA@24         008fa560 f   kernel32:KERNEL32.dll
 0001:004f6566       _CompareStringW@24         008fa566 f   kernel32:KERNEL32.dll
 0001:004f656c       _SetEnvironmentVariableA@8 008fa56c f   kernel32:KERNEL32.dll
 0001:004f6572       _RaiseException@16         008fa572 f   kernel32:KERNEL32.dll
 0001:004f6578       _SetEndOfFile@4            008fa578 f   kernel32:KERNEL32.dll
 0001:004f6580       _f_aint                    008fa580 f   fj90f:jwe_fain.obj
 0001:004f65c0       _jwe_fjci                  008fa5c0 f   fj90f:jwe_fjci.obj
 0001:004f65f0       _jwe_fvav                  008fa5f0 f   fj90f:jwe_fu8f.obj
 0001:004f6640       _jwe_fumu                  008fa640 f   fj90f:jwe_fu8f.obj
 0001:004f66d0       _jwe_fvvv                  008fa6d0 f   fj90f:jwe_fu8f.obj
 0001:004f6720       _jwe_fjcv                  008fa720 f   fj90f:jwe_fjcv.obj
 0001:004f6740       _jwe_fjdu                  008fa740 f   fj90f:jwe_fjdu.obj
 0001:004f68e0       _jwe_fnzb                  008fa8e0 f   fj90f:jwe_fnzb.obj
 0001:004f6a20       _f_a8sb                    008faa20 f   fj90f:jwe_fjsb.obj
 0001:004f6b90       _g_dbleq                   008fab90 f   fj90g:jwe_gdbq.obj
 0001:004f6d60       _g_aqcj                    008fad60 f   fj90g:jwe_gqcj.obj
 0001:004f6ef0       _main                      008faef0 f   fj90i:jwe_xrt0.obj
 0001:004f6fe0       _fstat                     008fafe0 f   libc:fstat.obj
 0001:004f6fe0       __fstat                    008fafe0 f   libc:fstat.obj
 0001:004f7258       __fileno                   008fb258 f   libc:fileno.obj
 0001:004f7258       _fileno                    008fb258 f   libc:fileno.obj
 0001:004f7260       __cprintf                  008fb260 f   libc:cprintf.obj
 0001:004f7260       _cprintf                   008fb260 f   libc:cprintf.obj
 0001:004f7a42       __tempnam                  008fba42 f   libc:tempnam.obj
 0001:004f7a42       _tempnam                   008fba42 f   libc:tempnam.obj
 0001:004f7c29       _remove                    008fbc29 f   libc:unlink.obj
 0001:004f7c53       __unlink                   008fbc53 f   libc:unlink.obj
 0001:004f7c53       _unlink                    008fbc53 f   libc:unlink.obj
 0001:004f7c5e       __access                   008fbc5e f   libc:access.obj
 0001:004f7c5e       _access                    008fbc5e f   libc:access.obj
 0001:004f7cb0       _strnicmp                  008fbcb0 f   libc:strnicmp.obj
 0001:004f7cb0       __strnicmp                 008fbcb0 f   libc:strnicmp.obj
 0001:004f7d5d       __putch                    008fbd5d f   libc:putch.obj
 0001:004f7da1       __itoa                     008fbda1 f   libc:xtoa.obj
 0001:004f7e2a       __ltoa                     008fbe2a f   libc:xtoa.obj
 0001:004f7e54       __ultoa                    008fbe54 f   libc:xtoa.obj
 0001:004f7e6f       __i64toa                   008fbe6f f   libc:xtoa.obj
 0001:004f7f26       __ui64toa                  008fbf26 f   libc:xtoa.obj
 0001:004f7f41       __rmtmp                    008fbf41 f   libc:rmtmp.obj
 0001:004f7f7d       ___initconin               008fbf7d f   libc:initcon.obj
 0001:004f7f9c       ___initconout              008fbf9c f   libc:initcon.obj
 0001:004f7fbb       ___termcon                 008fbfbb f   libc:initcon.obj
 0001:004f7fe8       _WriteConsoleA@20          008fbfe8 f   kernel32:KERNEL32.dll
 0002:00000000       __imp__GetFileInformationByHandle@8 008fc000     kernel32:KERNEL32.dll
 0002:00000004       __imp__GetTimeZoneInformation@4 008fc004     kernel32:KERNEL32.dll
 0002:00000008       __imp__GetLocalTime@4      008fc008     kernel32:KERNEL32.dll
 0002:0000000c       __imp__GetCommandLineA@0   008fc00c     kernel32:KERNEL32.dll
 0002:00000010       __imp__AllocConsole@0      008fc010     kernel32:KERNEL32.dll
 0002:00000014       __imp__GetStdHandle@4      008fc014     kernel32:KERNEL32.dll
 0002:00000018       __imp__QueryPerformanceCounter@4 008fc018     kernel32:KERNEL32.dll
 0002:0000001c       __imp__QueryPerformanceFrequency@4 008fc01c     kernel32:KERNEL32.dll
 0002:00000020       __imp__GetVersionExA@4     008fc020     kernel32:KERNEL32.dll
 0002:00000024       __imp__GetProcAddress@8    008fc024     kernel32:KERNEL32.dll
 0002:00000028       __imp__GetModuleHandleA@4  008fc028     kernel32:KERNEL32.dll
 0002:0000002c       __imp__ReadFile@20         008fc02c     kernel32:KERNEL32.dll
 0002:00000030       __imp__GetLastError@0      008fc030     kernel32:KERNEL32.dll
 0002:00000034       __imp__SetFilePointer@16   008fc034     kernel32:KERNEL32.dll
 0002:00000038       __imp__FormatMessageA@28   008fc038     kernel32:KERNEL32.dll
 0002:0000003c       __imp__DeleteFileA@4       008fc03c     kernel32:KERNEL32.dll
 0002:00000040       __imp__WriteFile@20        008fc040     kernel32:KERNEL32.dll
 0002:00000044       __imp__CreateFileA@28      008fc044     kernel32:KERNEL32.dll
 0002:00000048       __imp__CloseHandle@4       008fc048     kernel32:KERNEL32.dll
 0002:0000004c       __imp__GetFileSize@8       008fc04c     kernel32:KERNEL32.dll
 0002:00000050       __imp__UnmapViewOfFile@4   008fc050     kernel32:KERNEL32.dll
 0002:00000054       __imp__IsBadReadPtr@8      008fc054     kernel32:KERNEL32.dll
 0002:00000058       __imp__MapViewOfFile@20    008fc058     kernel32:KERNEL32.dll
 0002:0000005c       __imp__CreateFileMappingA@24 008fc05c     kernel32:KERNEL32.dll
 0002:00000060       __imp__GetFileType@4       008fc060     kernel32:KERNEL32.dll
 0002:00000064       __imp__GetFileAttributesA@4 008fc064     kernel32:KERNEL32.dll
 0002:00000068       __imp__SearchPathA@24      008fc068     kernel32:KERNEL32.dll
 0002:0000006c       __imp__LoadLibraryExA@12   008fc06c     kernel32:KERNEL32.dll
 0002:00000070       __imp__GetVersion@0        008fc070     kernel32:KERNEL32.dll
 0002:00000074       __imp__ExitProcess@4       008fc074     kernel32:KERNEL32.dll
 0002:00000078       __imp__FindClose@4         008fc078     kernel32:KERNEL32.dll
 0002:0000007c       __imp__FileTimeToSystemTime@8 008fc07c     kernel32:KERNEL32.dll
 0002:00000080       __imp__FileTimeToLocalFileTime@8 008fc080     kernel32:KERNEL32.dll
 0002:00000084       __imp__GetDriveTypeA@4     008fc084     kernel32:KERNEL32.dll
 0002:00000088       __imp__FindFirstFileA@8    008fc088     kernel32:KERNEL32.dll
 0002:0000008c       __imp__HeapFree@12         008fc08c     kernel32:KERNEL32.dll
 0002:00000090       __imp__HeapAlloc@12        008fc090     kernel32:KERNEL32.dll
 0002:00000094       __imp__TerminateProcess@8  008fc094     kernel32:KERNEL32.dll
 0002:00000098       __imp__GetCurrentProcess@0 008fc098     kernel32:KERNEL32.dll
 0002:0000009c       __imp__WriteConsoleA@20    008fc09c     kernel32:KERNEL32.dll
 0002:000000a0       __imp__PeekNamedPipe@24    008fc0a0     kernel32:KERNEL32.dll
 0002:000000a4       __imp__HeapReAlloc@16      008fc0a4     kernel32:KERNEL32.dll
 0002:000000a8       __imp__UnhandledExceptionFilter@4 008fc0a8     kernel32:KERNEL32.dll
 0002:000000ac       __imp__GetModuleFileNameA@12 008fc0ac     kernel32:KERNEL32.dll
 0002:000000b0       __imp__FreeEnvironmentStringsA@4 008fc0b0     kernel32:KERNEL32.dll
 0002:000000b4       __imp__FreeEnvironmentStringsW@4 008fc0b4     kernel32:KERNEL32.dll
 0002:000000b8       __imp__WideCharToMultiByte@32 008fc0b8     kernel32:KERNEL32.dll
 0002:000000bc       __imp__GetEnvironmentStrings@0 008fc0bc     kernel32:KERNEL32.dll
 0002:000000c0       __imp__GetEnvironmentStringsW@0 008fc0c0     kernel32:KERNEL32.dll
 0002:000000c4       __imp__SetHandleCount@4    008fc0c4     kernel32:KERNEL32.dll
 0002:000000c8       __imp__GetStartupInfoA@4   008fc0c8     kernel32:KERNEL32.dll
 0002:000000cc       __imp__GetEnvironmentVariableA@12 008fc0cc     kernel32:KERNEL32.dll
 0002:000000d0       __imp__HeapDestroy@4       008fc0d0     kernel32:KERNEL32.dll
 0002:000000d4       __imp__HeapCreate@12       008fc0d4     kernel32:KERNEL32.dll
 0002:000000d8       __imp__VirtualFree@12      008fc0d8     kernel32:KERNEL32.dll
 0002:000000dc       __imp__RtlUnwind@16        008fc0dc     kernel32:KERNEL32.dll
 0002:000000e0       __imp__GetFullPathNameA@16 008fc0e0     kernel32:KERNEL32.dll
 0002:000000e4       __imp__GetCurrentDirectoryA@8 008fc0e4     kernel32:KERNEL32.dll
 0002:000000e8       __imp__SetCurrentDirectoryA@4 008fc0e8     kernel32:KERNEL32.dll
 0002:000000ec       __imp__FlushFileBuffers@4  008fc0ec     kernel32:KERNEL32.dll
 0002:000000f0       __imp__MultiByteToWideChar@24 008fc0f0     kernel32:KERNEL32.dll
 0002:000000f4       __imp__GetStringTypeA@20   008fc0f4     kernel32:KERNEL32.dll
 0002:000000f8       __imp__GetStringTypeW@16   008fc0f8     kernel32:KERNEL32.dll
 0002:000000fc       __imp__LCMapStringA@24     008fc0fc     kernel32:KERNEL32.dll
 0002:00000100       __imp__LCMapStringW@24     008fc100     kernel32:KERNEL32.dll
 0002:00000104       __imp__VirtualAlloc@16     008fc104     kernel32:KERNEL32.dll
 0002:00000108       __imp__IsBadWritePtr@8     008fc108     kernel32:KERNEL32.dll
 0002:0000010c       __imp__SetConsoleCtrlHandler@8 008fc10c     kernel32:KERNEL32.dll
 0002:00000110       __imp__SetStdHandle@8      008fc110     kernel32:KERNEL32.dll
 0002:00000114       __imp__GetCPInfo@8         008fc114     kernel32:KERNEL32.dll
 0002:00000118       __imp__GetACP@0            008fc118     kernel32:KERNEL32.dll
 0002:0000011c       __imp__GetOEMCP@0          008fc11c     kernel32:KERNEL32.dll
 0002:00000120       __imp__LoadLibraryA@4      008fc120     kernel32:KERNEL32.dll
 0002:00000124       __imp__CompareStringA@24   008fc124     kernel32:KERNEL32.dll
 0002:00000128       __imp__CompareStringW@24   008fc128     kernel32:KERNEL32.dll
 0002:0000012c       __imp__SetEnvironmentVariableA@8 008fc12c     kernel32:KERNEL32.dll
 0002:00000130       __imp__RaiseException@16   008fc130     kernel32:KERNEL32.dll
 0002:00000134       __imp__SetEndOfFile@4      008fc134     kernel32:KERNEL32.dll
 0002:00000138       \177KERNEL32_NULL_THUNK_DATA 008fc138     kernel32:KERNEL32.dll
 0002:0000013c       __imp__MessageBoxA@16      008fc13c     user32:USER32.dll
 0002:00000140       \177USER32_NULL_THUNK_DATA 008fc140     user32:USER32.dll
 0002:000001a8       _jwe_sz__lm_agwaterbudgets_ 008fc1a8     Agriculture.obj
 0002:000001ac       _jwe_sz__lm_agwaterbudgets@_initag_ 008fc1ac     Agriculture.obj
 0002:000001b0       _jwe_sz__lm_agwaterbudgets@_openfiles_ag_ 008fc1b0     Agriculture.obj
 0002:000001b4       _jwe_sz__lm_agwaterbudgets@_readfiles_ag_ 008fc1b4     Agriculture.obj
 0002:000001b8       _jwe_ssn__lm_agwaterbudgets@_readfiles_ag_ 008fc1b8     Agriculture.obj
 0002:000003e8       _jwe_ssn__lm_agwaterbudgets@_openfiles_ag_ 008fc3e8     Agriculture.obj
 0002:00000500       _jwe_ssn__lm_agwaterbudgets@_initag_ 008fc500     Agriculture.obj
 0002:000005c8       _jwe_sz__lms_agwaterbudgets_ 008fc5c8     Agriculture.obj
 0002:000005cc       _jwe_sz__lms_agwaterbudgets@_agriculturedemand_ 008fc5cc     Agriculture.obj
 0002:000005d0       _jwe_sz__lms_agwaterbudgets@_agricultureproduction_ 008fc5d0     Agriculture.obj
 0002:000005d4       _jwe_sz__lms_agwaterbudgets@_agriculturalbudgets_ 008fc5d4     Agriculture.obj
 0002:000005d8       _jwe_ssn__lms_agwaterbudgets@_agriculturalbudgets_ 008fc5d8     Agriculture.obj
 0002:00000784       _jwe_ssn__lms_agwaterbudgets@_agricultureproduction_ 008fc784     Agriculture.obj
 0002:00000b30       _jwe_ssn__lms_agwaterbudgets@_agriculturedemand_ 008fcb30     Agriculture.obj
 0002:00000df4       _jwe_sz__initializeagriculture_ 008fcdf4     Agriculture.obj
 0002:00000df8       _jwe_ssn__initializeagriculture_ 008fcdf8     Agriculture.obj
 0002:00000e88       _jwe_sz__sagdemand_        008fce88     Agriculture.obj
 0002:00000e8c       _jwe_ssn__sagdemand_       008fce8c     Agriculture.obj
 0002:00000f04       _jwe_sz__sagprovider_      008fcf04     Agriculture.obj
 0002:00000f08       _jwe_ssn__sagprovider_     008fcf08     Agriculture.obj
 0002:00000f80       _jwe_sz__sagproductionstatic_ 008fcf80     Agriculture.obj
 0002:00000f84       _jwe_ssn__sagproductionstatic_ 008fcf84     Agriculture.obj
 0002:00000ffc       _jwe_sz__saginitialize_water_ 008fcffc     Agriculture.obj
 0002:00001000       _jwe_ssn__saginitialize_water_ 008fd000     Agriculture.obj
 0002:00001190       _jwe_sz__sagpumpingses_    008fd190     Agriculture.obj
 0002:00001194       _jwe_ssn__sagpumpingses_   008fd194     Agriculture.obj
 0002:000013a4       _jwe_sz__sagsurfaceses_    008fd3a4     Agriculture.obj
 0002:000013a8       _jwe_ssn__sagsurfaceses_   008fd3a8     Agriculture.obj
 0002:000019f8       _jwe_sz__lm_buildnotes_    008fd9f8     BuildNotes.obj
 0002:000019fc       _jwe_sz__lm_buildnotes@_buildnumk_ 008fd9fc     BuildNotes.obj
 0002:00001a00       _jwe_sz__lm_buildnotes@_buildverk_ 008fda00     BuildNotes.obj
 0002:00001a04       _jwe_sz__lm_buildnotes@_buildsubverk_ 008fda04     BuildNotes.obj
 0002:00001a08       _jwe_sz__lm_buildnotes@_monthk_ 008fda08     BuildNotes.obj
 0002:00001a0c       _jwe_sz__lm_buildnotes@_dayk_ 008fda0c     BuildNotes.obj
 0002:00001a10       _jwe_sz__lm_buildnotes@_yeark_ 008fda10     BuildNotes.obj
 0002:00001a14       _jwe_sz__lm_buildnotes@_hourk_ 008fda14     BuildNotes.obj
 0002:00001a18       _jwe_sz__lm_buildnotes@_mink_ 008fda18     BuildNotes.obj
 0002:00001a1c       _jwe_ssn__lm_buildnotes@_mink_ 008fda1c     BuildNotes.obj
 0002:00001a8c       _jwe_ssn__lm_buildnotes@_hourk_ 008fda8c     BuildNotes.obj
 0002:00001afc       _jwe_ssn__lm_buildnotes@_yeark_ 008fdafc     BuildNotes.obj
 0002:00001b6c       _jwe_ssn__lm_buildnotes@_dayk_ 008fdb6c     BuildNotes.obj
 0002:00001bdc       _jwe_ssn__lm_buildnotes@_monthk_ 008fdbdc     BuildNotes.obj
 0002:00001c4c       _jwe_ssn__lm_buildnotes@_buildsubverk_ 008fdc4c     BuildNotes.obj
 0002:00001cbc       _jwe_ssn__lm_buildnotes@_buildverk_ 008fdcbc     BuildNotes.obj
 0002:00001d2c       _jwe_ssn__lm_buildnotes@_buildnumk_ 008fdd2c     BuildNotes.obj
 0002:00002090       _jwe_sz__pstartup_k_       008fe090     Demand.obj
 0002:00002094       _jwe_ssn__pstartup_k_      008fe094     Demand.obj
 0002:00002100       _jwe_sz__sdemandwrap_      008fe100     Demand.obj
 0002:00002104       _jwe_ssn__sdemandwrap_     008fe104     Demand.obj
 0002:000021e8       _jwe_sz__soutdooraccounting_ 008fe1e8     Demand.obj
 0002:000021ec       _jwe_ssn__soutdooraccounting_ 008fe1ec     Demand.obj
 0002:000022c8       _jwe_sz__pgraywater_       008fe2c8     Demand.obj
 0002:000022cc       _jwe_ssn__pgraywater_      008fe2cc     Demand.obj
 0002:000023d0       _jwe_sz__pstormwaterharvest_ 008fe3d0     Demand.obj
 0002:000023d4       _jwe_ssn__pstormwaterharvest_ 008fe3d4     Demand.obj
 0002:000024d8       _jwe_sz__prainwaterharvest_ 008fe4d8     Demand.obj
 0002:000024dc       _jwe_ssn__prainwaterharvest_ 008fe4dc     Demand.obj
 0002:000025e0       _jwe_sz__pwaterbanking_k_  008fe5e0     Demand.obj
 0002:000025e4       _jwe_ssn__pwaterbanking_k_ 008fe5e4     Demand.obj
 0002:00002760       _jwe_sz__pwaterfordirectinject_s_ 008fe760     Demand.obj
 0002:00002764       _jwe_ssn__pwaterfordirectinject_s_ 008fe764     Demand.obj
 0002:00002968       _jwe_sz__pwaterreclaimed_s_ 008fe968     Demand.obj
 0002:0000296c       _jwe_ssn__pwaterreclaimed_s_ 008fe96c     Demand.obj
 0002:00002ba0       _jwe_sz__prowaterreclaimed_s_ 008feba0     Demand.obj
 0002:00002ba4       _jwe_ssn__prowaterreclaimed_s_ 008feba4     Demand.obj
 0002:00002d28       _jwe_sz__pwaterforvadose_s_ 008fed28     Demand.obj
 0002:00002d2c       _jwe_ssn__pwaterforvadose_s_ 008fed2c     Demand.obj
 0002:00002f70       _jwe_sz__pnewwatersupplies_k_ 008fef70     Demand.obj
 0002:00002f74       _jwe_ssn__pnewwatersupplies_k_ 008fef74     Demand.obj
 0002:00003108       _jwe_sz__pcleanup_k_       008ff108     Demand.obj
 0002:0000310c       _jwe_ssn__pcleanup_k_      008ff10c     Demand.obj
 0002:00003178       _jwe_sz__punusednonpotable_ 008ff178     Demand.obj
 0002:0000317c       _jwe_ssn__punusednonpotable_ 008ff17c     Demand.obj
 0002:00003240       _jwe_sz__scwaccounting_    008ff240     Demand.obj
 0002:00003244       _jwe_ssn__scwaccounting_   008ff244     Demand.obj
 0002:00003338       _jwe_sz__soptimize_        008ff338     Demand.obj
 0002:0000333c       _jwe_ssn__soptimize_       008ff33c     Demand.obj
 0002:00003490       _jwe_sz__soptimize_off_    008ff490     Demand.obj
 0002:00003494       _jwe_ssn__soptimize_off_   008ff494     Demand.obj
 0002:00003568       _jwe_sz__son_inrounding_   008ff568     Demand.obj
 0002:0000356c       _jwe_ssn__son_inrounding_  008ff56c     Demand.obj
 0002:00003610       _jwe_sz__son_outrounding_  008ff610     Demand.obj
 0002:00003614       _jwe_ssn__son_outrounding_ 008ff614     Demand.obj
 0002:000036b8       _jwe_sz__son_rounding_     008ff6b8     Demand.obj
 0002:000036bc       _jwe_ssn__son_rounding_    008ff6bc     Demand.obj
 0002:00003798       _jwe_sz__soff_rounding_    008ff798     Demand.obj
 0002:0000379c       _jwe_ssn__soff_rounding_   008ff79c     Demand.obj
 0002:00003878       _jwe_sz__scwaccountingindoorout_ 008ff878     Demand.obj
 0002:0000387c       _jwe_ssn__scwaccountingindoorout_ 008ff87c     Demand.obj
 0002:00004230       _jwe_sz__lm_designationsdaily_a_ 00900230     DesignationsDaily.obj
 0002:00004234       _jwe_sz__lm_designationsdaily_a@_initadesignationsdaily_ 00900234     DesignationsDaily.obj
 0002:00004238       _jwe_sz__lm_designationsdaily_a@_openfiles_adesignationsd_ 00900238     DesignationsDaily.obj
 0002:0000423c       _jwe_sz__lm_designationsdaily_a@_readfiles_adesignationsd_ 0090023c     DesignationsDaily.obj
 0002:00004240       _jwe_ssn__lm_designationsdaily_a@_readfiles_adesignationsd_ 00900240     DesignationsDaily.obj
 0002:000043fc       _jwe_ssn__lm_designationsdaily_a@_openfiles_adesignationsd_ 009003fc     DesignationsDaily.obj
 0002:00004568       _jwe_ssn__lm_designationsdaily_a@_initadesignationsdaily_ 00900568     DesignationsDaily.obj
 0002:00004634       _jwe_sz__lms_designationsdaily_a_ 00900634     DesignationsDaily.obj
 0002:00004638       _jwe_sz__lms_designationsdaily_a@_extract_ 00900638     DesignationsDaily.obj
 0002:0000463c       _jwe_sz__lms_designationsdaily_a@_flow_ 0090063c     DesignationsDaily.obj
 0002:00004640       _jwe_sz__lms_designationsdaily_a@_fmodflowsvtdaily_ 00900640     DesignationsDaily.obj
 0002:00004644       _jwe_sz__lms_designationsdaily_a@_designations_ 00900644     DesignationsDaily.obj
 0002:00004648       _jwe_sz__lms_designationsdaily_a@_leapyear_ 00900648     DesignationsDaily.obj
 0002:0000464c       _jwe_ssn__lms_designationsdaily_a@_leapyear_ 0090064c     DesignationsDaily.obj
 0002:0000472c       _jwe_ssn__lms_designationsdaily_a@_designations_ 0090072c     DesignationsDaily.obj
 0002:00004be0       _jwe_ssn__lms_designationsdaily_a@_fmodflowsvtdaily_ 00900be0     DesignationsDaily.obj
 0002:00004cd4       _jwe_ssn__lms_designationsdaily_a@_flow_ 00900cd4     DesignationsDaily.obj
 0002:00004dac       _jwe_ssn__lms_designationsdaily_a@_extract_ 00900dac     DesignationsDaily.obj
 0002:00004f2c       _jwe_sz__initializedailydesig_ 00900f2c     DesignationsDaily.obj
 0002:00004f30       _jwe_ssn__initializedailydesig_ 00900f30     DesignationsDaily.obj
 0002:00004fac       _jwe_sz__extractdaily_     00900fac     DesignationsDaily.obj
 0002:00004fb0       _jwe_ssn__extractdaily_    00900fb0     DesignationsDaily.obj
 0002:00005630       _jwe_sz__lm_designations_b_ 00901630     Designations_CO.obj
 0002:00005634       _jwe_sz__lm_designations_b@_initbdesignations_ 00901634     Designations_CO.obj
 0002:00005638       _jwe_sz__lm_designations_b@_openfiles_bdesignations_ 00901638     Designations_CO.obj
 0002:0000563c       _jwe_sz__lm_designations_b@_readparms_pvd_ 0090163c     Designations_CO.obj
 0002:00005640       _jwe_sz__lm_designations_b@_readfiles_bdesignations_ 00901640     Designations_CO.obj
 0002:00005644       _jwe_ssn__lm_designations_b@_readfiles_bdesignations_ 00901644     Designations_CO.obj
 0002:000057cc       _jwe_ssn__lm_designations_b@_readparms_pvd_ 009017cc     Designations_CO.obj
 0002:00005904       _jwe_ssn__lm_designations_b@_openfiles_bdesignations_ 00901904     Designations_CO.obj
 0002:00005a34       _jwe_ssn__lm_designations_b@_initbdesignations_ 00901a34     Designations_CO.obj
 0002:00005b08       _jwe_sz__lms_designations_b_ 00901b08     Designations_CO.obj
 0002:00005b0c       _jwe_sz__lms_designations_b@_apartition_b_ 00901b0c     Designations_CO.obj
 0002:00005b10       _jwe_sz__lms_designations_b@_aallocate_b_ 00901b10     Designations_CO.obj
 0002:00005b14       _jwe_sz__lms_designations_b@_maxcapdesignations_ 00901b14     Designations_CO.obj
 0002:00005b18       _jwe_sz__lms_designations_b@_capneeded_ 00901b18     Designations_CO.obj
 0002:00005b1c       _jwe_sz__lms_designations_b@_reductionsindesignations_ 00901b1c     Designations_CO.obj
 0002:00005b20       _jwe_sz__lms_designations_b@_capout_ 00901b20     Designations_CO.obj
 0002:00005b24       _jwe_sz__lms_designations_b@_waterbank_ 00901b24     Designations_CO.obj
 0002:00005b28       _jwe_sz__lms_designations_b@_capprioritywater_ 00901b28     Designations_CO.obj
 0002:00005b2c       _jwe_sz__lms_designations_b@_deltacapwater_ 00901b2c     Designations_CO.obj
 0002:00005b30       _jwe_sz__lms_designations_b@_coriverdeltawater_ 00901b30     Designations_CO.obj
 0002:00005b34       _jwe_sz__lms_designations_b@_atypeconvert_ 00901b34     Designations_CO.obj
 0002:00005b38       _jwe_ssn__lms_designations_b@_atypeconvert_ 00901b38     Designations_CO.obj
 0002:00005c18       _jwe_ssn__lms_designations_b@_coriverdeltawater_ 00901c18     Designations_CO.obj
 0002:00005ea4       _jwe_ssn__lms_designations_b@_deltacapwater_ 00901ea4     Designations_CO.obj
 0002:00005fac       _jwe_ssn__lms_designations_b@_capprioritywater_ 00901fac     Designations_CO.obj
 0002:0000608c       _jwe_ssn__lms_designations_b@_waterbank_ 0090208c     Designations_CO.obj
 0002:00006194       _jwe_ssn__lms_designations_b@_capout_ 00902194     Designations_CO.obj
 0002:00006380       _jwe_ssn__lms_designations_b@_reductionsindesignations_ 00902380     Designations_CO.obj
 0002:00006ae4       _jwe_ssn__lms_designations_b@_capneeded_ 00902ae4     Designations_CO.obj
 0002:00006c1c       _jwe_ssn__lms_designations_b@_maxcapdesignations_ 00902c1c     Designations_CO.obj
 0002:00006d10       _jwe_ssn__lms_designations_b@_aallocate_b_ 00902d10     Designations_CO.obj
 0002:00006e0c       _jwe_ssn__lms_designations_b@_apartition_b_ 00902e0c     Designations_CO.obj
 0002:00007108       _jwe_sz__initializecoloradodesig_ 00903108     Designations_CO.obj
 0002:0000710c       _jwe_ssn__initializecoloradodesig_ 0090310c     Designations_CO.obj
 0002:00007188       _jwe_sz__pcap_water_       00903188     Designations_CO.obj
 0002:0000718c       _jwe_ssn__pcap_water_      0090318c     Designations_CO.obj
 0002:00007c30       _jwe_sz__lm_designations_a_ 00903c30     Designations_STV.obj
 0002:00007c34       _jwe_sz__lm_designations_a@_initadesignations_ 00903c34     Designations_STV.obj
 0002:00007c38       _jwe_sz__lm_designations_a@_openfiles_adesignations_ 00903c38     Designations_STV.obj
 0002:00007c3c       _jwe_sz__lm_designations_a@_readfiles_adesignations_ 00903c3c     Designations_STV.obj
 0002:00007c40       _jwe_ssn__lm_designations_a@_readfiles_adesignations_ 00903c40     Designations_STV.obj
 0002:00007e6c       _jwe_ssn__lm_designations_a@_openfiles_adesignations_ 00903e6c     Designations_STV.obj
 0002:00007fb0       _jwe_ssn__lm_designations_a@_initadesignations_ 00903fb0     Designations_STV.obj
 0002:0000807c       _jwe_sz__lms_designations_a_ 0090407c     Designations_STV.obj
 0002:00008080       _jwe_sz__lms_designations_a@_aclear_ 00904080     Designations_STV.obj
 0002:00008084       _jwe_sz__lms_designations_a@_adesignations_classbcmax_a_ 00904084     Designations_STV.obj
 0002:00008088       _jwe_sz__lms_designations_a@_adesignations_classbc_storage_ 00904088     Designations_STV.obj
 0002:0000808c       _jwe_ssn__lms_designations_a@_adesignations_classbc_storage_ 0090408c     Designations_STV.obj
 0002:0000836c       _jwe_ssn__lms_designations_a@_adesignations_classbcmax_a_ 0090436c     Designations_STV.obj
 0002:00008488       _jwe_ssn__lms_designations_a@_aclear_ 00904488     Designations_STV.obj
 0002:00008588       _jwe_sz__initializestvdesignations_ 00904588     Designations_STV.obj
 0002:0000858c       _jwe_ssn__initializestvdesignations_ 0090458c     Designations_STV.obj
 0002:00008608       _jwe_sz__adesignationsclassbcmax_ 00904608     Designations_STV.obj
 0002:0000860c       _jwe_ssn__adesignationsclassbcmax_ 0090460c     Designations_STV.obj
 0002:00008688       _jwe_sz__dsalttontoverde_  00904688     Designations_STV.obj
 0002:0000868c       _jwe_ssn__dsalttontoverde_ 0090468c     Designations_STV.obj
 0002:00008718       _jwe_sz__sbookkeeping_     00904718     Designations_STV.obj
 0002:0000871c       _jwe_ssn__sbookkeeping_    0090471c     Designations_STV.obj
 0002:000087a8       _jwe_sz__classadesignations_a_ 009047a8     Designations_STV.obj
 0002:000087ac       _jwe_ssn__classadesignations_a_ 009047ac     Designations_STV.obj
 0002:00008830       _jwe_sz__ssrp_classbc_     00904830     Designations_STV.obj
 0002:00008834       _jwe_ssn__ssrp_classbc_    00904834     Designations_STV.obj
 0002:00008fa0       _jwe_sz__lms_climatefactor_ 00904fa0     Functions.obj
 0002:00008fa4       _jwe_sz__lms_climatefactor@_fclimatefactorco_ 00904fa4     Functions.obj
 0002:00008fa8       _jwe_sz__lms_climatefactor@_fclimatefactorsvt_ 00904fa8     Functions.obj
 0002:00008fac       _jwe_sz__lms_climatefactor@_flinear_ 00904fac     Functions.obj
 0002:00008fb0       _jwe_sz__lms_climatefactor@_climateparms_ 00904fb0     Functions.obj
 0002:00008fb4       _jwe_sz__lms_climatefactor@_slope_ 00904fb4     Functions.obj
 0002:00008fb8       _jwe_sz__lms_climatefactor@_intercept_ 00904fb8     Functions.obj
 0002:00008fbc       _jwe_ssn__lms_climatefactor@_intercept_ 00904fbc     Functions.obj
 0002:000090b4       _jwe_ssn__lms_climatefactor@_slope_ 009050b4     Functions.obj
 0002:000091ac       _jwe_ssn__lms_climatefactor@_climateparms_ 009051ac     Functions.obj
 0002:00009284       _jwe_ssn__lms_climatefactor@_flinear_ 00905284     Functions.obj
 0002:00009334       _jwe_ssn__lms_climatefactor@_fclimatefactorsvt_ 00905334     Functions.obj
 0002:00009484       _jwe_ssn__lms_climatefactor@_fclimatefactorco_ 00905484     Functions.obj
 0002:000095d4       _jwe_sz__lms_agricultureretirement_ 009055d4     Functions.obj
 0002:000095d8       _jwe_sz__lms_agricultureretirement@_fagretirementfactor_ 009055d8     Functions.obj
 0002:000095dc       _jwe_sz__lms_agricultureretirement@_agricparms_ 009055dc     Functions.obj
 0002:000095e0       _jwe_sz__lms_agricultureretirement@_slope_ 009055e0     Functions.obj
 0002:000095e4       _jwe_sz__lms_agricultureretirement@_intercept_ 009055e4     Functions.obj
 0002:000095e8       _jwe_sz__lms_agricultureretirement@_flinear_ 009055e8     Functions.obj
 0002:000095ec       _jwe_ssn__lms_agricultureretirement@_flinear_ 009055ec     Functions.obj
 0002:0000969c       _jwe_ssn__lms_agricultureretirement@_intercept_ 0090569c     Functions.obj
 0002:00009794       _jwe_ssn__lms_agricultureretirement@_slope_ 00905794     Functions.obj
 0002:0000988c       _jwe_ssn__lms_agricultureretirement@_agricparms_ 0090588c     Functions.obj
 0002:00009964       _jwe_ssn__lms_agricultureretirement@_fagretirementfactor_ 00905964     Functions.obj
 0002:00009ab4       _jwe_sz__fvariablefactorx_ 00905ab4     Functions.obj
 0002:00009ab8       _jwe_ssn__fvariablefactorx_ 00905ab8     Functions.obj
 0002:00009b34       _jwe_sz__agretirement_     00905b34     Functions.obj
 0002:00009b38       _jwe_ssn__agretirement_    00905b38     Functions.obj
 0002:00009bdc       _jwe_sz__climatefactorco_  00905bdc     Functions.obj
 0002:00009be0       _jwe_ssn__climatefactorco_ 00905be0     Functions.obj
 0002:00009c6c       _jwe_sz__climatefactorsvt_ 00905c6c     Functions.obj
 0002:00009c70       _jwe_ssn__climatefactorsvt_ 00905c70     Functions.obj
 0002:00009cfc       _jwe_sz__fround_           00905cfc     Functions.obj
 0002:00009d00       _jwe_ssn__fround_          00905d00     Functions.obj
 0002:00009dac       _jwe_sz__feffectivegpcd_   00905dac     Functions.obj
 0002:00009db0       _jwe_ssn__feffectivegpcd_  00905db0     Functions.obj
 0002:00009e24       _jwe_sz__fincrementfloat_  00905e24     Functions.obj
 0002:00009e28       _jwe_ssn__fincrementfloat_ 00905e28     Functions.obj
 0002:00009e94       _jwe_sz__fincrementdouble_ 00905e94     Functions.obj
 0002:00009e98       _jwe_ssn__fincrementdouble_ 00905e98     Functions.obj
 0002:00009f04       _jwe_sz__fstoragerelease_  00905f04     Functions.obj
 0002:00009f08       _jwe_ssn__fstoragerelease_ 00905f08     Functions.obj
 0002:0000a00c       _jwe_sz__fmodifynormalflow_ 0090600c     Functions.obj
 0002:0000a010       _jwe_ssn__fmodifynormalflow_ 00906010     Functions.obj
 0002:0000a09c       _jwe_sz__fmodifytrottnormalflow_ 0090609c     Functions.obj
 0002:0000a0a0       _jwe_ssn__fmodifytrottnormalflow_ 009060a0     Functions.obj
 0002:0000a114       _jwe_sz__fstates_          00906114     Functions.obj
 0002:0000a118       _jwe_ssn__fstates_         00906118     Functions.obj
 0002:0000a194       _jwe_sz__flogicaltointeger_ 00906194     Functions.obj
 0002:0000a198       _jwe_ssn__flogicaltointeger_ 00906198     Functions.obj
 0002:0000a234       _jwe_sz__fdconvert_        00906234     Functions.obj
 0002:0000a238       _jwe_ssn__fdconvert_       00906238     Functions.obj
 0002:0000a2c4       _jwe_sz__froundtoaf_       009062c4     Functions.obj
 0002:0000a2c8       _jwe_ssn__froundtoaf_      009062c8     Functions.obj
 0002:0000a34c       _jwe_sz__fsesgpcd_alpha_   0090634c     Functions.obj
 0002:0000a350       _jwe_ssn__fsesgpcd_alpha_  00906350     Functions.obj
 0002:0000a61c       _jwe_sz__fminmaxalpha_     0090661c     Functions.obj
 0002:0000a620       _jwe_ssn__fminmaxalpha_    00906620     Functions.obj
 0002:0000a694       _jwe_sz__fsesgpcd_gamma_   00906694     Functions.obj
 0002:0000a698       _jwe_ssn__fsesgpcd_gamma_  00906698     Functions.obj
 0002:0000a8c4       _jwe_sz__fsesgpcd_discount_ 009068c4     Functions.obj
 0002:0000a8c8       _jwe_ssn__fsesgpcd_discount_ 009068c8     Functions.obj
 0002:0000a964       _jwe_sz__fsesgpcd_equalweight_ 00906964     Functions.obj
 0002:0000a968       _jwe_ssn__fsesgpcd_equalweight_ 00906968     Functions.obj
 0002:0000a9fc       _jwe_sz__fgamma_           009069fc     Functions.obj
 0002:0000aa00       _jwe_ssn__fgamma_          00906a00     Functions.obj
 0002:0000aaac       _jwe_sz__fsesgpcd_increase_ 00906aac     Functions.obj
 0002:0000aab0       _jwe_ssn__fsesgpcd_increase_ 00906ab0     Functions.obj
 0002:0000ab44       _jwe_sz__fevaporation_     00906b44     Functions.obj
 0002:0000ab48       _jwe_ssn__fevaporation_    00906b48     Functions.obj
 0002:0000abd4       _jwe_sz__fevaporationmonthly_ 00906bd4     Functions.obj
 0002:0000abd8       _jwe_ssn__fevaporationmonthly_ 00906bd8     Functions.obj
 0002:0000ac64       _jwe_sz__fevaporation_reach_ 00906c64     Functions.obj
 0002:0000ac68       _jwe_ssn__fevaporation_reach_ 00906c68     Functions.obj
 0002:0000ace4       _jwe_sz__fbankstoragereach_ 00906ce4     Functions.obj
 0002:0000ace8       _jwe_ssn__fbankstoragereach_ 00906ce8     Functions.obj
 0002:0000ad5c       _jwe_sz__fevaporation_powell_ 00906d5c     Functions.obj
 0002:0000ad60       _jwe_ssn__fevaporation_powell_ 00906d60     Functions.obj
 0002:0000ae24       _jwe_sz__fevaporation_mead_ 00906e24     Functions.obj
 0002:0000ae28       _jwe_ssn__fevaporation_mead_ 00906e28     Functions.obj
 0002:0000aeec       _jwe_sz__fhorsepowercap_   00906eec     Functions.obj
 0002:0000aef0       _jwe_ssn__fhorsepowercap_  00906ef0     Functions.obj
 0002:0000af6c       _jwe_sz__fkilowatthrsfromhp_ 00906f6c     Functions.obj
 0002:0000af70       _jwe_ssn__fkilowatthrsfromhp_ 00906f70     Functions.obj
 0002:0000afec       _jwe_sz__fcftstoacftperannum_ 00906fec     Functions.obj
 0002:0000aff0       _jwe_ssn__fcftstoacftperannum_ 00906ff0     Functions.obj
 0002:0000b064       _jwe_sz__facftperannumtocfts_ 00907064     Functions.obj
 0002:0000b068       _jwe_ssn__facftperannumtocfts_ 00907068     Functions.obj
 0002:0000b0e4       _jwe_sz__fleapyear_        009070e4     Functions.obj
 0002:0000b0e8       _jwe_ssn__fleapyear_       009070e8     Functions.obj
 0002:0000b174       _jwe_sz__fmonthsfromdoy_   00907174     Functions.obj
 0002:0000b178       _jwe_ssn__fmonthsfromdoy_  00907178     Functions.obj
 0002:0000b2f4       _jwe_sz__fstverdereservoirf_ 009072f4     Functions.obj
 0002:0000b2f8       _jwe_ssn__fstverdereservoirf_ 009072f8     Functions.obj
 0002:0000b38c       _jwe_sz__fses_alpha_       0090738c     Functions.obj
 0002:0000b390       _jwe_ssn__fses_alpha_      00907390     Functions.obj
 0002:0000b5f4       _jwe_sz__fses_discount_    009075f4     Functions.obj
 0002:0000b5f8       _jwe_ssn__fses_discount_   009075f8     Functions.obj
 0002:0000b68c       _jwe_sz__fdemandfrompopgpcd_ 0090768c     Functions.obj
 0002:0000b690       _jwe_ssn__fdemandfrompopgpcd_ 00907690     Functions.obj
 0002:0000b704       _jwe_sz__fcreatetarget_    00907704     Functions.obj
 0002:0000b708       _jwe_ssn__fcreatetarget_   00907708     Functions.obj
 0002:0000b784       _jwe_sz__fhyperbola_       00907784     Functions.obj
 0002:0000b788       _jwe_ssn__fhyperbola_      00907788     Functions.obj
 0002:0000b854       _jwe_sz__fhyperbolarunoff_ 00907854     Functions.obj
 0002:0000b858       _jwe_ssn__fhyperbolarunoff_ 00907858     Functions.obj
 0002:0000b8f4       _jwe_sz__fhyperbollclustatic_ 009078f4     Functions.obj
 0002:0000b8f8       _jwe_ssn__fhyperbollclustatic_ 009078f8     Functions.obj
 0002:0000b97c       _jwe_sz__flogistic_        0090797c     Functions.obj
 0002:0000b980       _jwe_ssn__flogistic_       00907980     Functions.obj
 0002:0000ba5c       _jwe_sz__finverselogistic_ 00907a5c     Functions.obj
 0002:0000ba60       _jwe_ssn__finverselogistic_ 00907a60     Functions.obj
 0002:0000bb3c       _jwe_sz__flogisticlclustatic_ 00907b3c     Functions.obj
 0002:0000bb40       _jwe_ssn__flogisticlclustatic_ 00907b40     Functions.obj
 0002:0000bbc4       _jwe_sz__fsumlcludemand_   00907bc4     Functions.obj
 0002:0000bbc8       _jwe_ssn__fsumlcludemand_  00907bc8     Functions.obj
 0002:0000bc54       _jwe_sz__flcluefficiencies_ 00907c54     Functions.obj
 0002:0000bc58       _jwe_ssn__flcluefficiencies_ 00907c58     Functions.obj
 0002:0000cc30       _jwe_sz__gm_globaldata_    00908c30     Global.obj
 0002:0000cc34       _jwe_sz__gm_versioncontrol_ 00908c34     Global.obj
 0002:0000cc38       _jwe_sz__gm_modelcontrol_  00908c38     Global.obj
 0002:0000cc3c       _jwe_sz__gm_exception_     00908c3c     Global.obj
 0002:0000cc40       _jwe_sz__MODULE@gm_globaldata_ 00908c40     Global.obj
 0002:0000cc48       _jwe_sz__int2charact_      00908c48     GlobalSubroutines.obj
 0002:0000cc4c       _jwe_ssn__int2charact_     00908c4c     GlobalSubroutines.obj
 0002:0000ccc0       _jwe_sz__sdatetimebuild_   00908cc0     GlobalSubroutines.obj
 0002:0000ccc4       _jwe_ssn__sdatetimebuild_  00908cc4     GlobalSubroutines.obj
 0002:0000cdf0       _jwe_sz__openfiles_        00908df0     GlobalSubroutines.obj
 0002:0000cdf4       _jwe_ssn__openfiles_       00908df4     GlobalSubroutines.obj
 0002:0000cf58       _jwe_sz__serrorcodes_      00908f58     GlobalSubroutines.obj
 0002:0000cf5c       _jwe_ssn__serrorcodes_     00908f5c     GlobalSubroutines.obj
 0002:0000cfe8       _jwe_sz__daysintheyear_    00908fe8     GlobalSubroutines.obj
 0002:0000cfec       _jwe_ssn__daysintheyear_   00908fec     GlobalSubroutines.obj
 0002:0000d078       _jwe_sz__scomparecontrol_  00909078     GlobalSubroutines.obj
 0002:0000d07c       _jwe_ssn__scomparecontrol_ 0090907c     GlobalSubroutines.obj
 0002:0000d118       _jwe_sz__seightypercentcap_ 00909118     GlobalSubroutines.obj
 0002:0000d11c       _jwe_ssn__seightypercentcap_ 0090911c     GlobalSubroutines.obj
 0002:0000d1c8       _jwe_sz__seightypercentsrp_ 009091c8     GlobalSubroutines.obj
 0002:0000d1cc       _jwe_ssn__seightypercentsrp_ 009091cc     GlobalSubroutines.obj
 0002:0000d278       _jwe_sz__seightypercent_   00909278     GlobalSubroutines.obj
 0002:0000d27c       _jwe_ssn__seightypercent_  0090927c     GlobalSubroutines.obj
 0002:0000d3e8       _jwe_sz__saggroundwater_   009093e8     GlobalSubroutines.obj
 0002:0000d3ec       _jwe_ssn__saggroundwater_  009093ec     GlobalSubroutines.obj
 0002:0000d868       _jwe_sz__sagsurfacewaterother_ 00909868     GlobalSubroutines.obj
 0002:0000d86c       _jwe_ssn__sagsurfacewaterother_ 0090986c     GlobalSubroutines.obj
 0002:0000dda0       _jwe_sz__spopulationmask_  00909da0     GlobalSubroutines.obj
 0002:0000dda4       _jwe_ssn__spopulationmask_ 00909da4     GlobalSubroutines.obj
 0002:0000dea8       _jwe_sz__scapmaskcredits_  00909ea8     GlobalSubroutines.obj
 0002:0000deac       _jwe_ssn__scapmaskcredits_ 00909eac     GlobalSubroutines.obj
 0002:0000df48       _jwe_sz__sesrunningt_      00909f48     GlobalSubroutines.obj
 0002:0000df4c       _jwe_ssn__sesrunningt_     00909f4c     GlobalSubroutines.obj
 0002:0000e020       _jwe_sz__gpcd_eight_       0090a020     GlobalSubroutines.obj
 0002:0000e024       _jwe_ssn__gpcd_eight_      0090a024     GlobalSubroutines.obj
 0002:0000e1b0       _jwe_sz__gpcd_             0090a1b0     GlobalSubroutines.obj
 0002:0000e1b4       _jwe_ssn__gpcd_            0090a1b4     GlobalSubroutines.obj
 0002:0000e270       _jwe_sz__smasksrp_         0090a270     GlobalSubroutines.obj
 0002:0000e274       _jwe_ssn__smasksrp_        0090a274     GlobalSubroutines.obj
 0002:0000e320       _jwe_sz__smask_            0090a320     GlobalSubroutines.obj
 0002:0000e324       _jwe_ssn__smask_           0090a324     GlobalSubroutines.obj
 0002:0000e3c0       _jwe_sz__smaskcap_         0090a3c0     GlobalSubroutines.obj
 0002:0000e3c4       _jwe_ssn__smaskcap_        0090a3c4     GlobalSubroutines.obj
 0002:0000e470       _jwe_sz__smasksrog_        0090a470     GlobalSubroutines.obj
 0002:0000e474       _jwe_ssn__smasksrog_       0090a474     GlobalSubroutines.obj
 0002:0000e520       _jwe_sz__smaskagriculture_ 0090a520     GlobalSubroutines.obj
 0002:0000e524       _jwe_ssn__smaskagriculture_ 0090a524     GlobalSubroutines.obj
 0002:0000e5d8       _jwe_sz__snewmaskagriculture_ 0090a5d8     GlobalSubroutines.obj
 0002:0000e5dc       _jwe_ssn__snewmaskagriculture_ 0090a5dc     GlobalSubroutines.obj
 0002:0000e6a0       _jwe_sz__agacerageandcredits_ 0090a6a0     GlobalSubroutines.obj
 0002:0000e6a4       _jwe_ssn__agacerageandcredits_ 0090a6a4     GlobalSubroutines.obj
 0002:0000e938       _jwe_sz__agacerageandcreditscap_ 0090a938     GlobalSubroutines.obj
 0002:0000e93c       _jwe_ssn__agacerageandcreditscap_ 0090a93c     GlobalSubroutines.obj
 0002:0000ea88       _jwe_sz__sproviders_       0090aa88     GlobalSubroutines.obj
 0002:0000ea8c       _jwe_ssn__sproviders_      0090aa8c     GlobalSubroutines.obj
 0002:0000ec18       _jwe_sz__smodifynormalflow_ 0090ac18     GlobalSubroutines.obj
 0002:0000ec1c       _jwe_ssn__smodifynormalflow_ 0090ac1c     GlobalSubroutines.obj
 0002:0000f368       _jwe_sz__lms_gpcddemand_   0090b368     GPCDdemand.obj
 0002:0000f36c       _jwe_sz__lms_gpcddemand@_mysub_ 0090b36c     GPCDdemand.obj
 0002:0000f370       _jwe_sz__lms_gpcddemand@_fcalcindoor_ 0090b370     GPCDdemand.obj
 0002:0000f374       _jwe_sz__lms_gpcddemand@_fcalcoutdoor_ 0090b374     GPCDdemand.obj
 0002:0000f378       _jwe_ssn__lms_gpcddemand@_fcalcoutdoor_ 0090b378     GPCDdemand.obj
 0002:0000f47c       _jwe_ssn__lms_gpcddemand@_fcalcindoor_ 0090b47c     GPCDdemand.obj
 0002:0000f588       _jwe_ssn__lms_gpcddemand@_mysub_ 0090b588     GPCDdemand.obj
 0002:0000f860       _jwe_sz__gpcdfrommetrics_  0090b860     GPCDdemand.obj
 0002:0000f864       _jwe_ssn__gpcdfrommetrics_ 0090b864     GPCDdemand.obj
 0002:0000fab8       _jwe_sz__lm_groundwater_a_ 0090bab8     Groundwater.obj
 0002:0000fabc       _jwe_sz__lm_groundwater_a@_initgw_ 0090babc     Groundwater.obj
 0002:0000fac0       _jwe_sz__lm_groundwater_a@_openfiles_g_ 0090bac0     Groundwater.obj
 0002:0000fac4       _jwe_sz__lm_groundwater_a@_readfiles_g_ 0090bac4     Groundwater.obj
 0002:0000fac8       _jwe_sz__lm_groundwater_a@_readparms_g_ 0090bac8     Groundwater.obj
 0002:0000facc       _jwe_sz__lm_groundwater_a@_initialstate_g_ 0090bacc     Groundwater.obj
 0002:0000fad0       _jwe_ssn__lm_groundwater_a@_initialstate_g_ 0090bad0     Groundwater.obj
 0002:0000fb8c       _jwe_ssn__lm_groundwater_a@_readparms_g_ 0090bb8c     Groundwater.obj
 0002:0000fc90       _jwe_ssn__lm_groundwater_a@_readfiles_g_ 0090bc90     Groundwater.obj
 0002:0000fe98       _jwe_ssn__lm_groundwater_a@_openfiles_g_ 0090be98     Groundwater.obj
 0002:0000ffc4       _jwe_ssn__lm_groundwater_a@_initgw_ 0090bfc4     Groundwater.obj
 0002:000100a0       _jwe_sz__lms_groundwater_a_ 0090c0a0     Groundwater.obj
 0002:000100a4       _jwe_sz__lms_groundwater_a@_initstate_g_ 0090c0a4     Groundwater.obj
 0002:000100a8       _jwe_sz__lms_groundwater_a@_deltastate_g_ 0090c0a8     Groundwater.obj
 0002:000100ac       _jwe_sz__lms_groundwater_a@_outinitialg_ 0090c0ac     Groundwater.obj
 0002:000100b0       _jwe_ssn__lms_groundwater_a@_outinitialg_ 0090c0b0     Groundwater.obj
 0002:00010180       _jwe_ssn__lms_groundwater_a@_deltastate_g_ 0090c180     Groundwater.obj
 0002:0001037c       _jwe_ssn__lms_groundwater_a@_initstate_g_ 0090c37c     Groundwater.obj
 0002:00010444       _jwe_sz__initializegwaterdata_ 0090c444     Groundwater.obj
 0002:00010448       _jwe_ssn__initializegwaterdata_ 0090c448     Groundwater.obj
 0002:000104c0       _jwe_sz__sinitialgroundwater_ 0090c4c0     Groundwater.obj
 0002:000104c4       _jwe_ssn__sinitialgroundwater_ 0090c4c4     Groundwater.obj
 0002:0001053c       _jwe_sz__pprovidergroundwater_ 0090c53c     Groundwater.obj
 0002:00010540       _jwe_ssn__pprovidergroundwater_ 0090c540     Groundwater.obj
 0002:00010888       _jwe_sz__pproviderdefaultgroundwater_ 0090c888     Groundwater.obj
 0002:0001088c       _jwe_ssn__pproviderdefaultgroundwater_ 0090c88c     Groundwater.obj
 0002:0001097c       _jwe_sz__modflowgroundwater_ 0090c97c     Groundwater.obj
 0002:00010980       _jwe_ssn__modflowgroundwater_ 0090c980     Groundwater.obj
 0002:00011038       _jwe_sz__lm_kernel_        0090d038     Kernel.obj
 0002:0001103c       _jwe_sz__lm_kernel@_runoneyearkernel_ 0090d03c     Kernel.obj
 0002:00011040       _jwe_sz__lm_kernel@_runmanyyearkernel_ 0090d040     Kernel.obj
 0002:00011044       _jwe_sz__lm_kernel@_skernalcode_ 0090d044     Kernel.obj
 0002:00011048       _jwe_sz__lm_kernel@_upstreamk_ 0090d048     Kernel.obj
 0002:0001104c       _jwe_sz__lm_kernel@_datetime_ 0090d04c     Kernel.obj
 0002:00011050       _jwe_sz__lm_kernel@_downstreamk_ 0090d050     Kernel.obj
 0002:00011054       _jwe_sz__lm_kernel@_int2char_ 0090d054     Kernel.obj
 0002:00011058       _jwe_sz__lm_kernel@_startupk_ 0090d058     Kernel.obj
 0002:0001105c       _jwe_sz__lm_kernel@_readfilescheckk_ 0090d05c     Kernel.obj
 0002:00011060       _jwe_sz__lm_kernel@_teardownk_ 0090d060     Kernel.obj
 0002:00011064       _jwe_sz__lm_kernel@_testing_ 0090d064     Kernel.obj
 0002:00011068       _jwe_ssn__lm_kernel@_testing_ 0090d068     Kernel.obj
 0002:00011118       _jwe_ssn__lm_kernel@_teardownk_ 0090d118     Kernel.obj
 0002:000112b8       _jwe_ssn__lm_kernel@_readfilescheckk_ 0090d2b8     Kernel.obj
 0002:00011408       _jwe_ssn__lm_kernel@_startupk_ 0090d408     Kernel.obj
 0002:00011620       _jwe_ssn__lm_kernel@_int2char_ 0090d620     Kernel.obj
 0002:000116d0       _jwe_ssn__lm_kernel@_downstreamk_ 0090d6d0     Kernel.obj
 0002:0001183c       _jwe_ssn__lm_kernel@_datetime_ 0090d83c     Kernel.obj
 0002:00011928       _jwe_ssn__lm_kernel@_upstreamk_ 0090d928     Kernel.obj
 0002:00011be0       _jwe_ssn__lm_kernel@_skernalcode_ 0090dbe0     Kernel.obj
 0002:00011dbc       _jwe_ssn__lm_kernel@_runmanyyearkernel_ 0090ddbc     Kernel.obj
 0002:00011e6c       _jwe_ssn__lm_kernel@_runoneyearkernel_ 0090de6c     Kernel.obj
 0002:00012014       _jwe_sz__lm_initialize_    0090e014     Kernel.obj
 0002:00012018       _jwe_sz__lm_initialize@_initk_ 0090e018     Kernel.obj
 0002:0001201c       _jwe_sz__lm_initialize@_global_ 0090e01c     Kernel.obj
 0002:00012020       _jwe_ssn__lm_initialize@_global_ 0090e020     Kernel.obj
 0002:00012100       _jwe_ssn__lm_initialize@_initk_ 0090e100     Kernel.obj
 0002:00012264       _jwe_sz__daysintheyeark_   0090e264     Kernel.obj
 0002:00012268       _jwe_ssn__daysintheyeark_  0090e268     Kernel.obj
 0002:000122ec       _jwe_sz__lm_start_         0090e2ec     Kernel.obj
 0002:000122f0       _jwe_sz__lm_start@_openfilesk_ 0090e2f0     Kernel.obj
 0002:000122f4       _jwe_sz__lm_start@_errorcheckreadk_ 0090e2f4     Kernel.obj
 0002:000122f8       _jwe_ssn__lm_start@_errorcheckreadk_ 0090e2f8     Kernel.obj
 0002:0001236c       _jwe_ssn__lm_start@_openfilesk_ 0090e36c     Kernel.obj
 0002:000123e0       _jwe_sz__lm_terminate_     0090e3e0     Kernel.obj
 0002:000123e4       _jwe_sz__lm_terminate@_closefilesk_ 0090e3e4     Kernel.obj
 0002:000123e8       _jwe_ssn__lm_terminate@_closefilesk_ 0090e3e8     Kernel.obj
 0002:0001245c       _jwe_sz__test_             0090e45c     Kernel.obj
 0002:00012460       _jwe_ssn__test_            0090e460     Kernel.obj
 0002:000124c4       _jwe_sz__outputpath_       0090e4c4     Kernel.obj
 0002:000124c8       _jwe_ssn__outputpath_      0090e4c8     Kernel.obj
 0002:00012e18       _jwe_sz__SetStringData_    0090ee18     KernelInterface.obj
 0002:00012e1c       _jwe_ssn__SetStringData_   0090ee1c     KernelInterface.obj
 0002:00012eb8       _jwe_sz__SetStringOutput_  0090eeb8     KernelInterface.obj
 0002:00012ebc       _jwe_ssn__SetStringOutput_ 0090eebc     KernelInterface.obj
 0002:00012f58       _jwe_sz__BuildNum_         0090ef58     KernelInterface.obj
 0002:00012f5c       _jwe_ssn__BuildNum_        0090ef5c     KernelInterface.obj
 0002:00012fd0       _jwe_sz__BuildVer_         0090efd0     KernelInterface.obj
 0002:00012fd4       _jwe_ssn__BuildVer_        0090efd4     KernelInterface.obj
 0002:00013048       _jwe_sz__BuildSubVer_      0090f048     KernelInterface.obj
 0002:0001304c       _jwe_ssn__BuildSubVer_     0090f04c     KernelInterface.obj
 0002:000130c0       _jwe_sz__TestMonth_        0090f0c0     KernelInterface.obj
 0002:000130c4       _jwe_ssn__TestMonth_       0090f0c4     KernelInterface.obj
 0002:00013138       _jwe_sz__TestDay_          0090f138     KernelInterface.obj
 0002:0001313c       _jwe_ssn__TestDay_         0090f13c     KernelInterface.obj
 0002:000131b0       _jwe_sz__TestYear_         0090f1b0     KernelInterface.obj
 0002:000131b4       _jwe_ssn__TestYear_        0090f1b4     KernelInterface.obj
 0002:00013228       _jwe_sz__TestHour_         0090f228     KernelInterface.obj
 0002:0001322c       _jwe_ssn__TestHour_        0090f22c     KernelInterface.obj
 0002:000132a0       _jwe_sz__TestMin_          0090f2a0     KernelInterface.obj
 0002:000132a4       _jwe_ssn__TestMin_         0090f2a4     KernelInterface.obj
 0002:00013318       _jwe_sz__Init_             0090f318     KernelInterface.obj
 0002:0001331c       _jwe_ssn__Init_            0090f31c     KernelInterface.obj
 0002:00013398       _jwe_sz__getStatus_        0090f398     KernelInterface.obj
 0002:0001339c       _jwe_ssn__getStatus_       0090f39c     KernelInterface.obj
 0002:00013410       _jwe_sz__RunOneYear_       0090f410     KernelInterface.obj
 0002:00013414       _jwe_ssn__RunOneYear_      0090f414     KernelInterface.obj
 0002:00013490       _jwe_sz__RunManyYears_     0090f490     KernelInterface.obj
 0002:00013494       _jwe_ssn__RunManyYears_    0090f494     KernelInterface.obj
 0002:00013510       _jwe_sz__OpenFiles_        0090f510     KernelInterface.obj
 0002:00013514       _jwe_ssn__OpenFiles_       0090f514     KernelInterface.obj
 0002:00013590       _jwe_sz__ReadFilesErr_     0090f590     KernelInterface.obj
 0002:00013594       _jwe_ssn__ReadFilesErr_    0090f594     KernelInterface.obj
 0002:00013610       _jwe_sz__getReadFileError_ 0090f610     KernelInterface.obj
 0002:00013614       _jwe_ssn__getReadFileError_ 0090f614     KernelInterface.obj
 0002:00013688       _jwe_sz__CloseFiles_       0090f688     KernelInterface.obj
 0002:0001368c       _jwe_ssn__CloseFiles_      0090f68c     KernelInterface.obj
 0002:00013708       _jwe_sz__getStartSimulation_ 0090f708     KernelInterface.obj
 0002:0001370c       _jwe_ssn__getStartSimulation_ 0090f70c     KernelInterface.obj
 0002:00013780       _jwe_sz__setStartSimulation_ 0090f780     KernelInterface.obj
 0002:00013784       _jwe_ssn__setStartSimulation_ 0090f784     KernelInterface.obj
 0002:00013800       _jwe_sz__getEndSimulation_ 0090f800     KernelInterface.obj
 0002:00013804       _jwe_ssn__getEndSimulation_ 0090f804     KernelInterface.obj
 0002:00013878       _jwe_sz__setEndSimulation_ 0090f878     KernelInterface.obj
 0002:0001387c       _jwe_ssn__setEndSimulation_ 0090f87c     KernelInterface.obj
 0002:000138f8       _jwe_sz__getWriteStatus_   0090f8f8     KernelInterface.obj
 0002:000138fc       _jwe_ssn__getWriteStatus_  0090f8fc     KernelInterface.obj
 0002:00013970       _jwe_sz__setWriteStatus_   0090f970     KernelInterface.obj
 0002:00013974       _jwe_ssn__setWriteStatus_  0090f974     KernelInterface.obj
 0002:000139f8       _jwe_sz__getWriteLog_      0090f9f8     KernelInterface.obj
 0002:000139fc       _jwe_ssn__getWriteLog_     0090f9fc     KernelInterface.obj
 0002:00013a70       _jwe_sz__setWriteLog_      0090fa70     KernelInterface.obj
 0002:00013a74       _jwe_ssn__setWriteLog_     0090fa74     KernelInterface.obj
 0002:00013af8       _jwe_sz__getErrorCode_     0090faf8     KernelInterface.obj
 0002:00013afc       _jwe_ssn__getErrorCode_    0090fafc     KernelInterface.obj
 0002:00013b70       _jwe_sz__getAPIcode_       0090fb70     KernelInterface.obj
 0002:00013b74       _jwe_ssn__getAPIcode_      0090fb74     KernelInterface.obj
 0002:00013be8       _jwe_sz__setAPIcode_       0090fbe8     KernelInterface.obj
 0002:00013bec       _jwe_ssn__setAPIcode_      0090fbec     KernelInterface.obj
 0002:00013c68       _jwe_sz__setBaseYear_      0090fc68     KernelInterface.obj
 0002:00013c6c       _jwe_ssn__setBaseYear_     0090fc6c     KernelInterface.obj
 0002:00013cf0       _jwe_sz__getClimateFactorEndYear_ 0090fcf0     KernelInterface.obj
 0002:00013cf4       _jwe_ssn__getClimateFactorEndYear_ 0090fcf4     KernelInterface.obj
 0002:00013d68       _jwe_sz__setClimateFactorEndYear_ 0090fd68     KernelInterface.obj
 0002:00013d6c       _jwe_ssn__setClimateFactorEndYear_ 0090fd6c     KernelInterface.obj
 0002:00013df0       _jwe_sz__getModifyNormalFlow_ 0090fdf0     KernelInterface.obj
 0002:00013df4       _jwe_ssn__getModifyNormalFlow_ 0090fdf4     KernelInterface.obj
 0002:00013e70       _jwe_sz__setModifyNormalFlow_ 0090fe70     KernelInterface.obj
 0002:00013e74       _jwe_ssn__setModifyNormalFlow_ 0090fe74     KernelInterface.obj
 0002:00013f10       _jwe_sz__getSTVtrace_      0090ff10     KernelInterface.obj
 0002:00013f14       _jwe_ssn__getSTVtrace_     0090ff14     KernelInterface.obj
 0002:00013f88       _jwe_sz__setSVTtrace_      0090ff88     KernelInterface.obj
 0002:00013f8c       _jwe_ssn__setSVTtrace_     0090ff8c     KernelInterface.obj
 0002:00014010       _jwe_sz__getSVTHistData_   00910010     KernelInterface.obj
 0002:00014014       _jwe_ssn__getSVTHistData_  00910014     KernelInterface.obj
 0002:00014090       _jwe_sz__setSVTHistData_   00910090     KernelInterface.obj
 0002:00014094       _jwe_ssn__setSVTHistData_  00910094     KernelInterface.obj
 0002:00014118       _jwe_sz__getSVHistExtractionStartYear_ 00910118     KernelInterface.obj
 0002:0001411c       _jwe_ssn__getSVHistExtractionStartYear_ 0091011c     KernelInterface.obj
 0002:00014190       _jwe_sz__setSVHistExtractionStartYear_ 00910190     KernelInterface.obj
 0002:00014194       _jwe_ssn__setSVHistExtractionStartYear_ 00910194     KernelInterface.obj
 0002:00014210       _jwe_sz__getSVClimateAdjustmentPercent_ 00910210     KernelInterface.obj
 0002:00014214       _jwe_ssn__getSVClimateAdjustmentPercent_ 00910214     KernelInterface.obj
 0002:00014290       _jwe_sz__setSVClimateAdjustmentPercent_ 00910290     KernelInterface.obj
 0002:00014294       _jwe_ssn__setSVClimateAdjustmentPercent_ 00910294     KernelInterface.obj
 0002:00014310       _jwe_sz__getSVUserAdjustmentStartYear_ 00910310     KernelInterface.obj
 0002:00014314       _jwe_ssn__getSVUserAdjustmentStartYear_ 00910314     KernelInterface.obj
 0002:00014388       _jwe_sz__setSVUserAdjustmentStartYear_ 00910388     KernelInterface.obj
 0002:0001438c       _jwe_ssn__setSVUserAdjustmentStartYear_ 0091038c     KernelInterface.obj
 0002:00014410       _jwe_sz__getSVUserAdjustmentStopYear_ 00910410     KernelInterface.obj
 0002:00014414       _jwe_ssn__getSVUserAdjustmentStopYear_ 00910414     KernelInterface.obj
 0002:00014488       _jwe_sz__setSVUserAdjustmentStopYear_ 00910488     KernelInterface.obj
 0002:0001448c       _jwe_ssn__setSVUserAdjustmentStopYear_ 0091048c     KernelInterface.obj
 0002:00014508       _jwe_sz__getSVUserAdjustmentPercent_ 00910508     KernelInterface.obj
 0002:0001450c       _jwe_ssn__getSVUserAdjustmentPercent_ 0091050c     KernelInterface.obj
 0002:00014580       _jwe_sz__setSVUserAdjustmentPercent_ 00910580     KernelInterface.obj
 0002:00014584       _jwe_ssn__setSVUserAdjustmentPercent_ 00910584     KernelInterface.obj
 0002:00014600       _jwe_sz__setCOtrace_       00910600     KernelInterface.obj
 0002:00014604       _jwe_ssn__setCOtrace_      00910604     KernelInterface.obj
 0002:00014688       _jwe_sz__getCOHistData_    00910688     KernelInterface.obj
 0002:0001468c       _jwe_ssn__getCOHistData_   0091068c     KernelInterface.obj
 0002:00014700       _jwe_sz__setCOHistData_    00910700     KernelInterface.obj
 0002:00014704       _jwe_ssn__setCOHistData_   00910704     KernelInterface.obj
 0002:00014788       _jwe_sz__getCOHistExtractionStartYear_ 00910788     KernelInterface.obj
 0002:0001478c       _jwe_ssn__getCOHistExtractionStartYear_ 0091078c     KernelInterface.obj
 0002:00014800       _jwe_sz__setCOHistExtractionStartYear_ 00910800     KernelInterface.obj
 0002:00014804       _jwe_ssn__setCOHistExtractionStartYear_ 00910804     KernelInterface.obj
 0002:00014888       _jwe_sz__getCOClimateAdjustmentPercent_ 00910888     KernelInterface.obj
 0002:0001488c       _jwe_ssn__getCOClimateAdjustmentPercent_ 0091088c     KernelInterface.obj
 0002:00014908       _jwe_sz__setCOClimateAdjustmentPercent_ 00910908     KernelInterface.obj
 0002:0001490c       _jwe_ssn__setCOClimateAdjustmentPercent_ 0091090c     KernelInterface.obj
 0002:00014988       _jwe_sz__getCOUserAdjustmentStartYear_ 00910988     KernelInterface.obj
 0002:0001498c       _jwe_ssn__getCOUserAdjustmentStartYear_ 0091098c     KernelInterface.obj
 0002:00014a00       _jwe_sz__setCOUserAdjustmentStartYear_ 00910a00     KernelInterface.obj
 0002:00014a04       _jwe_ssn__setCOUserAdjustmentStartYear_ 00910a04     KernelInterface.obj
 0002:00014a88       _jwe_sz__getCOUserAdjustmentStopYear_ 00910a88     KernelInterface.obj
 0002:00014a8c       _jwe_ssn__getCOUserAdjustmentStopYear_ 00910a8c     KernelInterface.obj
 0002:00014b00       _jwe_sz__setCOUserAdjustmentStopYear_ 00910b00     KernelInterface.obj
 0002:00014b04       _jwe_ssn__setCOUserAdjustmentStopYear_ 00910b04     KernelInterface.obj
 0002:00014b80       _jwe_sz__getCOUserAdjustmentPercent_ 00910b80     KernelInterface.obj
 0002:00014b84       _jwe_ssn__getCOUserAdjustmentPercent_ 00910b84     KernelInterface.obj
 0002:00014bf8       _jwe_sz__setCOUserAdjustmentPercent_ 00910bf8     KernelInterface.obj
 0002:00014bfc       _jwe_ssn__setCOUserAdjustmentPercent_ 00910bfc     KernelInterface.obj
 0002:00014c78       _jwe_sz__setWaterToCOdelta_ 00910c78     KernelInterface.obj
 0002:00014c7c       _jwe_ssn__setWaterToCOdelta_ 00910c7c     KernelInterface.obj
 0002:00014d00       _jwe_sz__setCODeltaBurden_ 00910d00     KernelInterface.obj
 0002:00014d04       _jwe_ssn__setCODeltaBurden_ 00910d04     KernelInterface.obj
 0002:00014d88       _jwe_sz__getRatioCOdeltaBurden_ 00910d88     KernelInterface.obj
 0002:00014d8c       _jwe_ssn__getRatioCOdeltaBurden_ 00910d8c     KernelInterface.obj
 0002:00014e00       _jwe_sz__getAZshareCOdeltaWater_ 00910e00     KernelInterface.obj
 0002:00014e04       _jwe_ssn__getAZshareCOdeltaWater_ 00910e04     KernelInterface.obj
 0002:00014e78       _jwe_sz__getCAshareCOdeltaWater_ 00910e78     KernelInterface.obj
 0002:00014e7c       _jwe_ssn__getCAshareCOdeltaWater_ 00910e7c     KernelInterface.obj
 0002:00014ef0       _jwe_sz__getNVshareCOdeltaWater_ 00910ef0     KernelInterface.obj
 0002:00014ef4       _jwe_ssn__getNVshareCOdeltaWater_ 00910ef4     KernelInterface.obj
 0002:00014f68       _jwe_sz__getMXshareCOdeltaWater_ 00910f68     KernelInterface.obj
 0002:00014f6c       _jwe_ssn__getMXshareCOdeltaWater_ 00910f6c     KernelInterface.obj
 0002:00014fe0       _jwe_sz__getNaturalRechargeSwitch_ 00910fe0     KernelInterface.obj
 0002:00014fe4       _jwe_ssn__getNaturalRechargeSwitch_ 00910fe4     KernelInterface.obj
 0002:00015058       _jwe_sz__setNaturalRechargeSwitch_ 00911058     KernelInterface.obj
 0002:0001505c       _jwe_ssn__setNaturalRechargeSwitch_ 0091105c     KernelInterface.obj
 0002:000150d8       _jwe_sz__getSVDelivery_    009110d8     KernelInterface.obj
 0002:000150dc       _jwe_ssn__getSVDelivery_   009110dc     KernelInterface.obj
 0002:00015150       _jwe_sz__getSVRiverFlow_   00911150     KernelInterface.obj
 0002:00015154       _jwe_ssn__getSVRiverFlow_  00911154     KernelInterface.obj
 0002:000151c8       _jwe_sz__getSVStorage_     009111c8     KernelInterface.obj
 0002:000151cc       _jwe_ssn__getSVStorage_    009111cc     KernelInterface.obj
 0002:00015240       _jwe_sz__getSVTspillage_   00911240     KernelInterface.obj
 0002:00015244       _jwe_ssn__getSVTspillage_  00911244     KernelInterface.obj
 0002:000152b8       _jwe_sz__getVerdeFlow_     009112b8     KernelInterface.obj
 0002:000152bc       _jwe_ssn__getVerdeFlow_    009112bc     KernelInterface.obj
 0002:00015330       _jwe_sz__getVerdeStorage_  00911330     KernelInterface.obj
 0002:00015334       _jwe_ssn__getVerdeStorage_ 00911334     KernelInterface.obj
 0002:000153a8       _jwe_sz__getVerdeClassAused_acft_ 009113a8     KernelInterface.obj
 0002:000153ac       _jwe_ssn__getVerdeClassAused_acft_ 009113ac     KernelInterface.obj
 0002:00015420       _jwe_sz__getverdeclassbcused_acft_ 00911420     KernelInterface.obj
 0002:00015424       _jwe_ssn__getverdeclassbcused_acft_ 00911424     KernelInterface.obj
 0002:00015498       _jwe_sz__getSaltTontoFlow_ 00911498     KernelInterface.obj
 0002:0001549c       _jwe_ssn__getSaltTontoFlow_ 0091149c     KernelInterface.obj
 0002:00015510       _jwe_sz__getSaltTontoStorage_ 00911510     KernelInterface.obj
 0002:00015514       _jwe_ssn__getSaltTontoStorage_ 00911514     KernelInterface.obj
 0002:00015588       _jwe_sz__getOtherSaltStorage_ 00911588     KernelInterface.obj
 0002:0001558c       _jwe_ssn__getOtherSaltStorage_ 0091158c     KernelInterface.obj
 0002:00015600       _jwe_sz__getRooseveltStorage_ 00911600     KernelInterface.obj
 0002:00015604       _jwe_ssn__getRooseveltStorage_ 00911604     KernelInterface.obj
 0002:00015678       _jwe_sz__getSaltTontoClassAused_acft_ 00911678     KernelInterface.obj
 0002:0001567c       _jwe_ssn__getSaltTontoClassAused_acft_ 0091167c     KernelInterface.obj
 0002:000156f0       _jwe_sz__getSaltTontoClassBCused_acft_ 009116f0     KernelInterface.obj
 0002:000156f4       _jwe_ssn__getSaltTontoClassBCused_acft_ 009116f4     KernelInterface.obj
 0002:00015768       _jwe_sz__getAZshareCO_     00911768     KernelInterface.obj
 0002:0001576c       _jwe_ssn__getAZshareCO_    0091176c     KernelInterface.obj
 0002:000157e0       _jwe_sz__getCAP_           009117e0     KernelInterface.obj
 0002:000157e4       _jwe_ssn__getCAP_          009117e4     KernelInterface.obj
 0002:00015858       _jwe_sz__getPowellElevation_ 00911858     KernelInterface.obj
 0002:0001585c       _jwe_ssn__getPowellElevation_ 0091185c     KernelInterface.obj
 0002:000158d0       _jwe_sz__getMeadElevation_ 009118d0     KernelInterface.obj
 0002:000158d4       _jwe_ssn__getMeadElevation_ 009118d4     KernelInterface.obj
 0002:00015948       _jwe_sz__getUpperBasinDeliveries_ 00911948     KernelInterface.obj
 0002:0001594c       _jwe_ssn__getUpperBasinDeliveries_ 0091194c     KernelInterface.obj
 0002:000159c0       _jwe_sz__setUpperBasinDeliveriesIndex_ 009119c0     KernelInterface.obj
 0002:000159c4       _jwe_ssn__setUpperBasinDeliveriesIndex_ 009119c4     KernelInterface.obj
 0002:00015a48       _jwe_sz__getCODelivery_    00911a48     KernelInterface.obj
 0002:00015a4c       _jwe_ssn__getCODelivery_   00911a4c     KernelInterface.obj
 0002:00015ac0       _jwe_sz__getCORiverFlow_   00911ac0     KernelInterface.obj
 0002:00015ac4       _jwe_ssn__getCORiverFlow_  00911ac4     KernelInterface.obj
 0002:00015b38       _jwe_sz__getCOStorage_     00911b38     KernelInterface.obj
 0002:00015b3c       _jwe_ssn__getCOStorage_    00911b3c     KernelInterface.obj
 0002:00015bb0       _jwe_sz__getPowellStorage_ 00911bb0     KernelInterface.obj
 0002:00015bb4       _jwe_ssn__getPowellStorage_ 00911bb4     KernelInterface.obj
 0002:00015c28       _jwe_sz__getMeadStorage_   00911c28     KernelInterface.obj
 0002:00015c2c       _jwe_ssn__getMeadStorage_  00911c2c     KernelInterface.obj
 0002:00015ca0       _jwe_sz__setAgPumpingCurve_ 00911ca0     KernelInterface.obj
 0002:00015ca4       _jwe_ssn__setAgPumpingCurve_ 00911ca4     KernelInterface.obj
 0002:00015d28       _jwe_sz__setAgCreditTransferPCT_ 00911d28     KernelInterface.obj
 0002:00015d2c       _jwe_ssn__setAgCreditTransferPCT_ 00911d2c     KernelInterface.obj
 0002:00015db0       _jwe_sz__setProviderAgCreditCurvePCT_ 00911db0     KernelInterface.obj
 0002:00015db4       _jwe_ssn__setProviderAgCreditCurvePCT_ 00911db4     KernelInterface.obj
 0002:00015e50       _jwe_sz__getWaterFromAgPumping_ 00911e50     KernelInterface.obj
 0002:00015e54       _jwe_ssn__getWaterFromAgPumping_ 00911e54     KernelInterface.obj
 0002:00015ed0       _jwe_sz__setWaterFromAgPumping_ 00911ed0     KernelInterface.obj
 0002:00015ed4       _jwe_ssn__setWaterFromAgPumping_ 00911ed4     KernelInterface.obj
 0002:00015f70       _jwe_sz__setWaterToAgricultureAF_ 00911f70     KernelInterface.obj
 0002:00015f74       _jwe_ssn__setWaterToAgricultureAF_ 00911f74     KernelInterface.obj
 0002:00016010       _jwe_sz__getWaterToAgricultureAF_ 00912010     KernelInterface.obj
 0002:00016014       _jwe_ssn__getWaterToAgricultureAF_ 00912014     KernelInterface.obj
 0002:00016090       _jwe_sz__getWaterFromAgPumpingMax_ 00912090     KernelInterface.obj
 0002:00016094       _jwe_ssn__getWaterFromAgPumpingMax_ 00912094     KernelInterface.obj
 0002:00016110       _jwe_sz__getWaterFromAgSurface_ 00912110     KernelInterface.obj
 0002:00016114       _jwe_ssn__getWaterFromAgSurface_ 00912114     KernelInterface.obj
 0002:00016188       _jwe_sz__setWaterFromAgSurface_ 00912188     KernelInterface.obj
 0002:0001618c       _jwe_ssn__setWaterFromAgSurface_ 0091218c     KernelInterface.obj
 0002:00016228       _jwe_sz__getWaterFromAgSurfaceMax_ 00912228     KernelInterface.obj
 0002:0001622c       _jwe_ssn__getWaterFromAgSurfaceMax_ 0091222c     KernelInterface.obj
 0002:000162a0       _jwe_sz__getGrossAgricultureWaterAF_ 009122a0     KernelInterface.obj
 0002:000162a4       _jwe_ssn__getGrossAgricultureWaterAF_ 009122a4     KernelInterface.obj
 0002:00016320       _jwe_sz__getNetAgricultureWaterAF_ 00912320     KernelInterface.obj
 0002:00016324       _jwe_ssn__getNetAgricultureWaterAF_ 00912324     KernelInterface.obj
 0002:000163a0       _jwe_sz__getAgProductionPCT_ 009123a0     KernelInterface.obj
 0002:000163a4       _jwe_ssn__getAgProductionPCT_ 009123a4     KernelInterface.obj
 0002:00016418       _jwe_sz__getAgCreditTransPCT_ 00912418     KernelInterface.obj
 0002:0001641c       _jwe_ssn__getAgCreditTransPCT_ 0091241c     KernelInterface.obj
 0002:00016498       _jwe_sz__getProviderMaxAgPumping_ 00912498     KernelInterface.obj
 0002:0001649c       _jwe_ssn__getProviderMaxAgPumping_ 0091249c     KernelInterface.obj
 0002:00016518       _jwe_sz__getProviderMaxAgSurface_ 00912518     KernelInterface.obj
 0002:0001651c       _jwe_ssn__getProviderMaxAgSurface_ 0091251c     KernelInterface.obj
 0002:00016598       _jwe_sz__geteightyPctRule_ 00912598     KernelInterface.obj
 0002:0001659c       _jwe_ssn__geteightyPctRule_ 0091259c     KernelInterface.obj
 0002:00016618       _jwe_sz__getPopGrowthRateAdjustPct_ 00912618     KernelInterface.obj
 0002:0001661c       _jwe_ssn__getPopGrowthRateAdjustPct_ 0091261c     KernelInterface.obj
 0002:00016698       _jwe_sz__setPopGrowthRateAdjustPct_ 00912698     KernelInterface.obj
 0002:0001669c       _jwe_ssn__setPopGrowthRateAdjustPct_ 0091269c     KernelInterface.obj
 0002:00016738       _jwe_sz__getPopGrowthRateOnProjectPct_ 00912738     KernelInterface.obj
 0002:0001673c       _jwe_ssn__getPopGrowthRateOnProjectPct_ 0091273c     KernelInterface.obj
 0002:000167b8       _jwe_sz__setPopGrowthRateOnProjectPct_ 009127b8     KernelInterface.obj
 0002:000167bc       _jwe_ssn__setPopGrowthRateOnProjectPct_ 009127bc     KernelInterface.obj
 0002:00016858       _jwe_sz__getPopGrowthRateOtherPct_ 00912858     KernelInterface.obj
 0002:0001685c       _jwe_ssn__getPopGrowthRateOtherPct_ 0091285c     KernelInterface.obj
 0002:000168d8       _jwe_sz__setPopGrowthRateOtherPct_ 009128d8     KernelInterface.obj
 0002:000168dc       _jwe_ssn__setPopGrowthRateOtherPct_ 009128dc     KernelInterface.obj
 0002:00016978       _jwe_sz__PopulationOnProject_ 00912978     KernelInterface.obj
 0002:0001697c       _jwe_ssn__PopulationOnProject_ 0091297c     KernelInterface.obj
 0002:000169f8       _jwe_sz__PopulationOther_  009129f8     KernelInterface.obj
 0002:000169fc       _jwe_ssn__PopulationOther_ 009129fc     KernelInterface.obj
 0002:00016a78       _jwe_sz__getTotalDemands_  00912a78     KernelInterface.obj
 0002:00016a7c       _jwe_ssn__getTotalDemands_ 00912a7c     KernelInterface.obj
 0002:00016af8       _jwe_sz__getPopulations_   00912af8     KernelInterface.obj
 0002:00016afc       _jwe_ssn__getPopulations_  00912afc     KernelInterface.obj
 0002:00016b78       _jwe_sz__getPopGrowthRate_ 00912b78     KernelInterface.obj
 0002:00016b7c       _jwe_ssn__getPopGrowthRate_ 00912b7c     KernelInterface.obj
 0002:00016bf8       _jwe_sz__setPopulationsOn_ 00912bf8     KernelInterface.obj
 0002:00016bfc       _jwe_ssn__setPopulationsOn_ 00912bfc     KernelInterface.obj
 0002:00016c98       _jwe_sz__setPopulationsOther_ 00912c98     KernelInterface.obj
 0002:00016c9c       _jwe_ssn__setPopulationsOther_ 00912c9c     KernelInterface.obj
 0002:00016d38       _jwe_sz__getProviderDeliveriesUsed_ 00912d38     KernelInterface.obj
 0002:00016d3c       _jwe_ssn__getProviderDeliveriesUsed_ 00912d3c     KernelInterface.obj
 0002:00016db8       _jwe_sz__getCOAnnualDeliveries_ 00912db8     KernelInterface.obj
 0002:00016dbc       _jwe_ssn__getCOAnnualDeliveries_ 00912dbc     KernelInterface.obj
 0002:00016e38       _jwe_sz__getCAPMandI_      00912e38     KernelInterface.obj
 0002:00016e3c       _jwe_ssn__getCAPMandI_     00912e3c     KernelInterface.obj
 0002:00016eb0       _jwe_sz__getCOMaxDeliveries_ 00912eb0     KernelInterface.obj
 0002:00016eb4       _jwe_ssn__getCOMaxDeliveries_ 00912eb4     KernelInterface.obj
 0002:00016f30       _jwe_sz__getSRPAnnualDeliveries_ 00912f30     KernelInterface.obj
 0002:00016f34       _jwe_ssn__getSRPAnnualDeliveries_ 00912f34     KernelInterface.obj
 0002:00016fb0       _jwe_sz__getSVMaxDeliveriesSRP_ 00912fb0     KernelInterface.obj
 0002:00016fb4       _jwe_ssn__getSVMaxDeliveriesSRP_ 00912fb4     KernelInterface.obj
 0002:00017030       _jwe_sz__getSVClassADesignations_ 00913030     KernelInterface.obj
 0002:00017034       _jwe_ssn__getSVClassADesignations_ 00913034     KernelInterface.obj
 0002:000170b0       _jwe_sz__getSVClassBCDesignations_ 009130b0     KernelInterface.obj
 0002:000170b4       _jwe_ssn__getSVClassBCDesignations_ 009130b4     KernelInterface.obj
 0002:00017130       _jwe_sz__getSVClassBCmax_  00913130     KernelInterface.obj
 0002:00017134       _jwe_ssn__getSVClassBCmax_ 00913134     KernelInterface.obj
 0002:000171b0       _jwe_sz__getSVTclassBCstorage_ 009131b0     KernelInterface.obj
 0002:000171b4       _jwe_ssn__getSVTclassBCstorage_ 009131b4     KernelInterface.obj
 0002:00017230       _jwe_sz__getSVTclassBCstorageMax_ 00913230     KernelInterface.obj
 0002:00017234       _jwe_ssn__getSVTclassBCstorageMax_ 00913234     KernelInterface.obj
 0002:000172b0       _jwe_sz__getSTClassAwaterUsed_ 009132b0     KernelInterface.obj
 0002:000172b4       _jwe_ssn__getSTClassAwaterUsed_ 009132b4     KernelInterface.obj
 0002:00017328       _jwe_sz__getSaltTontoClassBCwaterUsed_ 00913328     KernelInterface.obj
 0002:0001732c       _jwe_ssn__getSaltTontoClassBCwaterUsed_ 0091332c     KernelInterface.obj
 0002:000173a0       _jwe_sz__getVerdeClassAwaterUsed_ 009133a0     KernelInterface.obj
 0002:000173a4       _jwe_ssn__getVerdeClassAwaterUsed_ 009133a4     KernelInterface.obj
 0002:00017418       _jwe_sz__getVerdeClassBCwaterUsed_ 00913418     KernelInterface.obj
 0002:0001741c       _jwe_ssn__getVerdeClassBCwaterUsed_ 0091341c     KernelInterface.obj
 0002:00017490       _jwe_sz__getProviderGWDesignations_ 00913490     KernelInterface.obj
 0002:00017494       _jwe_ssn__getProviderGWDesignations_ 00913494     KernelInterface.obj
 0002:00017510       _jwe_sz__setProviderAnnualCredits_ 00913510     KernelInterface.obj
 0002:00017514       _jwe_ssn__setProviderAnnualCredits_ 00913514     KernelInterface.obj
 0002:000175b0       _jwe_sz__getProviderGWstored_ 009135b0     KernelInterface.obj
 0002:000175b4       _jwe_ssn__getProviderGWstored_ 009135b4     KernelInterface.obj
 0002:00017630       _jwe_sz__getProviderSWDesignations_ 00913630     KernelInterface.obj
 0002:00017634       _jwe_ssn__getProviderSWDesignations_ 00913634     KernelInterface.obj
 0002:000176b0       _jwe_sz__getAnnualProviderGroundW_ 009136b0     KernelInterface.obj
 0002:000176b4       _jwe_ssn__getAnnualProviderGroundW_ 009136b4     KernelInterface.obj
 0002:00017730       _jwe_sz__setProviderGroundWater_ 00913730     KernelInterface.obj
 0002:00017734       _jwe_ssn__setProviderGroundWater_ 00913734     KernelInterface.obj
 0002:000177d0       _jwe_sz__getProviderGWPumpageMuni_ 009137d0     KernelInterface.obj
 0002:000177d4       _jwe_ssn__getProviderGWPumpageMuni_ 009137d4     KernelInterface.obj
 0002:00017850       _jwe_sz__getProviderGWPumpageSRP_ 00913850     KernelInterface.obj
 0002:00017854       _jwe_ssn__getProviderGWPumpageSRP_ 00913854     KernelInterface.obj
 0002:000178d0       _jwe_sz__getProviderGWRecharge_ 009138d0     KernelInterface.obj
 0002:000178d4       _jwe_ssn__getProviderGWRecharge_ 009138d4     KernelInterface.obj
 0002:00017950       _jwe_sz__setAlterGPCDPct_  00913950     KernelInterface.obj
 0002:00017954       _jwe_ssn__setAlterGPCDPct_ 00913954     KernelInterface.obj
 0002:000179d8       _jwe_sz__getProviderAlterGPCDPct_ 009139d8     KernelInterface.obj
 0002:000179dc       _jwe_ssn__getProviderAlterGPCDPct_ 009139dc     KernelInterface.obj
 0002:00017a58       _jwe_sz__setProviderAlterGPCDPct_ 00913a58     KernelInterface.obj
 0002:00017a5c       _jwe_ssn__setProviderAlterGPCDPct_ 00913a5c     KernelInterface.obj
 0002:00017b20       _jwe_sz__setProviderMinGPCD_ 00913b20     KernelInterface.obj
 0002:00017b24       _jwe_ssn__setProviderMinGPCD_ 00913b24     KernelInterface.obj
 0002:00017bb8       _jwe_sz__getProviderMinGPCD_ 00913bb8     KernelInterface.obj
 0002:00017bbc       _jwe_ssn__getProviderMinGPCD_ 00913bbc     KernelInterface.obj
 0002:00017c38       _jwe_sz__setDemandOption_  00913c38     KernelInterface.obj
 0002:00017c3c       _jwe_ssn__setDemandOption_ 00913c3c     KernelInterface.obj
 0002:00017cb8       _jwe_sz__getDemandOption_  00913cb8     KernelInterface.obj
 0002:00017cbc       _jwe_ssn__getDemandOption_ 00913cbc     KernelInterface.obj
 0002:00017d30       _jwe_sz__getWaterBankingOption_ 00913d30     KernelInterface.obj
 0002:00017d34       _jwe_ssn__getWaterBankingOption_ 00913d34     KernelInterface.obj
 0002:00017db0       _jwe_sz__setWaterBankingOption_ 00913db0     KernelInterface.obj
 0002:00017db4       _jwe_ssn__setWaterBankingOption_ 00913db4     KernelInterface.obj
 0002:00017e50       _jwe_sz__setDemandPercent_ 00913e50     KernelInterface.obj
 0002:00017e54       _jwe_ssn__setDemandPercent_ 00913e54     KernelInterface.obj
 0002:00017ed8       _jwe_sz__getDemandPercent_ 00913ed8     KernelInterface.obj
 0002:00017edc       _jwe_ssn__getDemandPercent_ 00913edc     KernelInterface.obj
 0002:00017f50       _jwe_sz__getDemandMultiplier_ 00913f50     KernelInterface.obj
 0002:00017f54       _jwe_ssn__getDemandMultiplier_ 00913f54     KernelInterface.obj
 0002:00017fd0       _jwe_sz__getOnProjectDemand_ 00913fd0     KernelInterface.obj
 0002:00017fd4       _jwe_ssn__getOnProjectDemand_ 00913fd4     KernelInterface.obj
 0002:00018050       _jwe_sz__getOffProjectDemand_ 00914050     KernelInterface.obj
 0002:00018054       _jwe_ssn__getOffProjectDemand_ 00914054     KernelInterface.obj
 0002:000180d0       _jwe_sz__getTimeLagVadoseYears_ 009140d0     KernelInterface.obj
 0002:000180d4       _jwe_ssn__getTimeLagVadoseYears_ 009140d4     KernelInterface.obj
 0002:00018150       _jwe_sz__setTimeLagVadoseYears_ 00914150     KernelInterface.obj
 0002:00018154       _jwe_ssn__setTimeLagVadoseYears_ 00914154     KernelInterface.obj
 0002:000181f0       _jwe_sz__getParmReclaimedToVadosePct_ 009141f0     KernelInterface.obj
 0002:000181f4       _jwe_ssn__getParmReclaimedToVadosePct_ 009141f4     KernelInterface.obj
 0002:00018270       _jwe_sz__setParmReclaimedToVadosePct_ 00914270     KernelInterface.obj
 0002:00018274       _jwe_ssn__setParmReclaimedToVadosePct_ 00914274     KernelInterface.obj
 0002:00018310       _jwe_sz__getParmReclaimedToDirectInjPct_ 00914310     KernelInterface.obj
 0002:00018314       _jwe_ssn__getParmReclaimedToDirectInjPct_ 00914314     KernelInterface.obj
 0002:00018390       _jwe_sz__setParmReclaimedToDirectInjPct_ 00914390     KernelInterface.obj
 0002:00018394       _jwe_ssn__setParmReclaimedToDirectInjPct_ 00914394     KernelInterface.obj
 0002:00018430       _jwe_sz__getParmReclaimedToOutputPct_ 00914430     KernelInterface.obj
 0002:00018434       _jwe_ssn__getParmReclaimedToOutputPct_ 00914434     KernelInterface.obj
 0002:000184b0       _jwe_sz__setParmReclaimedToOutputPct_ 009144b0     KernelInterface.obj
 0002:000184b4       _jwe_ssn__setParmReclaimedToOutputPct_ 009144b4     KernelInterface.obj
 0002:00018550       _jwe_sz__getParmReclaimedToInputPct_ 00914550     KernelInterface.obj
 0002:00018554       _jwe_ssn__getParmReclaimedToInputPct_ 00914554     KernelInterface.obj
 0002:000185d0       _jwe_sz__setParmReclaimedToInputPct_ 009145d0     KernelInterface.obj
 0002:000185d4       _jwe_ssn__setParmReclaimedToInputPct_ 009145d4     KernelInterface.obj
 0002:00018670       _jwe_sz__getReclaimedOutdoorUse_ 00914670     KernelInterface.obj
 0002:00018674       _jwe_ssn__getReclaimedOutdoorUse_ 00914674     KernelInterface.obj
 0002:000186f0       _jwe_sz__setReclaimedOutdoorUse_ 009146f0     KernelInterface.obj
 0002:000186f4       _jwe_ssn__setReclaimedOutdoorUse_ 009146f4     KernelInterface.obj
 0002:00018790       _jwe_sz__getParmRWWToROPct_ 00914790     KernelInterface.obj
 0002:00018794       _jwe_ssn__getParmRWWToROPct_ 00914794     KernelInterface.obj
 0002:00018810       _jwe_sz__setParmRWWToROPct_ 00914810     KernelInterface.obj
 0002:00018814       _jwe_ssn__setParmRWWToROPct_ 00914814     KernelInterface.obj
 0002:000188b0       _jwe_sz__getParmROToOutputPct_ 009148b0     KernelInterface.obj
 0002:000188b4       _jwe_ssn__getParmROToOutputPct_ 009148b4     KernelInterface.obj
 0002:00018930       _jwe_sz__setParmROToOutputPct_ 00914930     KernelInterface.obj
 0002:00018934       _jwe_ssn__setParmROToOutputPct_ 00914934     KernelInterface.obj
 0002:000189d0       _jwe_sz__getParmOutDoorResPct_ 009149d0     KernelInterface.obj
 0002:000189d4       _jwe_ssn__getParmOutDoorResPct_ 009149d4     KernelInterface.obj
 0002:00018a50       _jwe_sz__setParmOutDoorResPct_ 00914a50     KernelInterface.obj
 0002:00018a54       _jwe_ssn__setParmOutDoorResPct_ 00914a54     KernelInterface.obj
 0002:00018af0       _jwe_sz__getParmOutDoorComPct_ 00914af0     KernelInterface.obj
 0002:00018af4       _jwe_ssn__getParmOutDoorComPct_ 00914af4     KernelInterface.obj
 0002:00018b70       _jwe_sz__setParmOutDoorComPct_ 00914b70     KernelInterface.obj
 0002:00018b74       _jwe_ssn__setParmOutDoorComPct_ 00914b74     KernelInterface.obj
 0002:00018c10       _jwe_sz__getParmOutDoorIndPct_ 00914c10     KernelInterface.obj
 0002:00018c14       _jwe_ssn__getParmOutDoorIndPct_ 00914c14     KernelInterface.obj
 0002:00018c90       _jwe_sz__setParmOutDoorIndPct_ 00914c90     KernelInterface.obj
 0002:00018c94       _jwe_ssn__setParmOutDoorIndPct_ 00914c94     KernelInterface.obj
 0002:00018d30       _jwe_sz__getParmWStoResPct_ 00914d30     KernelInterface.obj
 0002:00018d34       _jwe_ssn__getParmWStoResPct_ 00914d34     KernelInterface.obj
 0002:00018db0       _jwe_sz__setParmWStoResPct_ 00914db0     KernelInterface.obj
 0002:00018db4       _jwe_ssn__setParmWStoResPct_ 00914db4     KernelInterface.obj
 0002:00018e50       _jwe_sz__getParmWStoComPct_ 00914e50     KernelInterface.obj
 0002:00018e54       _jwe_ssn__getParmWStoComPct_ 00914e54     KernelInterface.obj
 0002:00018ed0       _jwe_sz__setParmWStoComPct_ 00914ed0     KernelInterface.obj
 0002:00018ed4       _jwe_ssn__setParmWStoComPct_ 00914ed4     KernelInterface.obj
 0002:00018f70       _jwe_sz__getParmWStoIndPct_ 00914f70     KernelInterface.obj
 0002:00018f74       _jwe_ssn__getParmWStoIndPct_ 00914f74     KernelInterface.obj
 0002:00018ff0       _jwe_sz__setParmWStoIndPct_ 00914ff0     KernelInterface.obj
 0002:00018ff4       _jwe_ssn__setParmWStoIndPct_ 00914ff4     KernelInterface.obj
 0002:00019090       _jwe_sz__getParmWWtoRWWTPPct_ 00915090     KernelInterface.obj
 0002:00019094       _jwe_ssn__getParmWWtoRWWTPPct_ 00915094     KernelInterface.obj
 0002:00019110       _jwe_sz__setParmWWtoRWWTPPct_ 00915110     KernelInterface.obj
 0002:00019114       _jwe_ssn__setParmWWtoRWWTPPct_ 00915114     KernelInterface.obj
 0002:000191b0       _jwe_sz__getParmWWtoEffluentPct_ 009151b0     KernelInterface.obj
 0002:000191b4       _jwe_ssn__getParmWWtoEffluentPct_ 009151b4     KernelInterface.obj
 0002:00019230       _jwe_sz__setParmWWtoEffluentPct_ 00915230     KernelInterface.obj
 0002:00019234       _jwe_ssn__setParmWWtoEffluentPct_ 00915234     KernelInterface.obj
 0002:000192d0       _jwe_sz__getParmSWtoWBankPct_ 009152d0     KernelInterface.obj
 0002:000192d4       _jwe_ssn__getParmSWtoWBankPct_ 009152d4     KernelInterface.obj
 0002:00019350       _jwe_sz__setParmSWtoWBankPct_ 00915350     KernelInterface.obj
 0002:00019354       _jwe_ssn__setParmSWtoWBankPct_ 00915354     KernelInterface.obj
 0002:000193f0       _jwe_sz__getParmSWtoWBankAmt_ 009153f0     KernelInterface.obj
 0002:000193f4       _jwe_ssn__getParmSWtoWBankAmt_ 009153f4     KernelInterface.obj
 0002:00019470       _jwe_sz__setParmSWtoWBankAmt_ 00915470     KernelInterface.obj
 0002:00019474       _jwe_ssn__setParmSWtoWBankAmt_ 00915474     KernelInterface.obj
 0002:00019510       _jwe_sz__getParmSWtoVadoseAmt_ 00915510     KernelInterface.obj
 0002:00019514       _jwe_ssn__getParmSWtoVadoseAmt_ 00915514     KernelInterface.obj
 0002:00019590       _jwe_sz__setParmSWtoVadoseAmt_ 00915590     KernelInterface.obj
 0002:00019594       _jwe_ssn__setParmSWtoVadoseAmt_ 00915594     KernelInterface.obj
 0002:00019630       _jwe_sz__getParmWStoDIAmt_ 00915630     KernelInterface.obj
 0002:00019634       _jwe_ssn__getParmWStoDIAmt_ 00915634     KernelInterface.obj
 0002:000196b0       _jwe_sz__setParmWStoDIAmt_ 009156b0     KernelInterface.obj
 0002:000196b4       _jwe_ssn__setParmWStoDIAmt_ 009156b4     KernelInterface.obj
 0002:00019750       _jwe_sz__getParmEffluentToPPlantPct_ 00915750     KernelInterface.obj
 0002:00019754       _jwe_ssn__getParmEffluentToPPlantPct_ 00915754     KernelInterface.obj
 0002:000197c8       _jwe_sz__setParmEffluentToPPlantPct_ 009157c8     KernelInterface.obj
 0002:000197cc       _jwe_ssn__setParmEffluentToPPlantPct_ 009157cc     KernelInterface.obj
 0002:00019868       _jwe_sz__getParmEffluenttoVadosePct_ 00915868     KernelInterface.obj
 0002:0001986c       _jwe_ssn__getParmEffluenttoVadosePct_ 0091586c     KernelInterface.obj
 0002:000198e8       _jwe_sz__setParmEffluenttoVadosePct_ 009158e8     KernelInterface.obj
 0002:000198ec       _jwe_ssn__setParmEffluenttoVadosePct_ 009158ec     KernelInterface.obj
 0002:00019988       _jwe_sz__getParmGWtoGWTPPct_ 00915988     KernelInterface.obj
 0002:0001998c       _jwe_ssn__getParmGWtoGWTPPct_ 0091598c     KernelInterface.obj
 0002:00019a08       _jwe_sz__setParmGWtoGWTPPct_ 00915a08     KernelInterface.obj
 0002:00019a0c       _jwe_ssn__setParmGWtoGWTPPct_ 00915a0c     KernelInterface.obj
 0002:00019aa8       _jwe_sz__setParmIncludeMeteo_ 00915aa8     KernelInterface.obj
 0002:00019aac       _jwe_ssn__setParmIncludeMeteo_ 00915aac     KernelInterface.obj
 0002:00019b30       _jwe_sz__getGrayWaterResidential_ 00915b30     KernelInterface.obj
 0002:00019b34       _jwe_ssn__getGrayWaterResidential_ 00915b34     KernelInterface.obj
 0002:00019bb0       _jwe_sz__getGrayWaterCommercial_ 00915bb0     KernelInterface.obj
 0002:00019bb4       _jwe_ssn__getGrayWaterCommercial_ 00915bb4     KernelInterface.obj
 0002:00019c30       _jwe_sz__getGrayWaterIndustrial_ 00915c30     KernelInterface.obj
 0002:00019c34       _jwe_ssn__getGrayWaterIndustrial_ 00915c34     KernelInterface.obj
 0002:00019cb0       _jwe_sz__getGWbankedUsed_  00915cb0     KernelInterface.obj
 0002:00019cb4       _jwe_ssn__getGWbankedUsed_ 00915cb4     KernelInterface.obj
 0002:00019d30       _jwe_sz__getGWbanked_      00915d30     KernelInterface.obj
 0002:00019d34       _jwe_ssn__getGWbanked_     00915d34     KernelInterface.obj
 0002:00019db0       _jwe_sz__getReclaimedWaterTotal_ 00915db0     KernelInterface.obj
 0002:00019db4       _jwe_ssn__getReclaimedWaterTotal_ 00915db4     KernelInterface.obj
 0002:00019e30       _jwe_sz__getReclaimedWaterOut_ 00915e30     KernelInterface.obj
 0002:00019e34       _jwe_ssn__getReclaimedWaterOut_ 00915e34     KernelInterface.obj
 0002:00019eb0       _jwe_sz__getReclaimedWaterUsed_ 00915eb0     KernelInterface.obj
 0002:00019eb4       _jwe_ssn__getReclaimedWaterUsed_ 00915eb4     KernelInterface.obj
 0002:00019f30       _jwe_sz__getReclaimedWaterToVadose_ 00915f30     KernelInterface.obj
 0002:00019f34       _jwe_ssn__getReclaimedWaterToVadose_ 00915f34     KernelInterface.obj
 0002:00019fb0       _jwe_sz__getReclaimedWaterDischarged_ 00915fb0     KernelInterface.obj
 0002:00019fb4       _jwe_ssn__getReclaimedWaterDischarged_ 00915fb4     KernelInterface.obj
 0002:0001a030       _jwe_sz__getReclaimedWaterDInject_ 00916030     KernelInterface.obj
 0002:0001a034       _jwe_ssn__getReclaimedWaterDInject_ 00916034     KernelInterface.obj
 0002:0001a0b0       _jwe_sz__getROReclaimedWaterOut_ 009160b0     KernelInterface.obj
 0002:0001a0b4       _jwe_ssn__getROReclaimedWaterOut_ 009160b4     KernelInterface.obj
 0002:0001a130       _jwe_sz__getROReclaimedWaterUsed_ 00916130     KernelInterface.obj
 0002:0001a134       _jwe_ssn__getROReclaimedWaterUsed_ 00916134     KernelInterface.obj
 0002:0001a1b0       _jwe_sz__getROReclaimedWaterDI_ 009161b0     KernelInterface.obj
 0002:0001a1b4       _jwe_ssn__getROReclaimedWaterDI_ 009161b4     KernelInterface.obj
 0002:0001a230       _jwe_sz__getEffluentCreated_ 00916230     KernelInterface.obj
 0002:0001a234       _jwe_ssn__getEffluentCreated_ 00916234     KernelInterface.obj
 0002:0001a2b0       _jwe_sz__getTWWTPCreated_  009162b0     KernelInterface.obj
 0002:0001a2b4       _jwe_ssn__getTWWTPCreated_ 009162b4     KernelInterface.obj
 0002:0001a330       _jwe_sz__getEffluentToPowerPlant_ 00916330     KernelInterface.obj
 0002:0001a334       _jwe_ssn__getEffluentToPowerPlant_ 00916334     KernelInterface.obj
 0002:0001a3b0       _jwe_sz__getEffluentToVadose_ 009163b0     KernelInterface.obj
 0002:0001a3b4       _jwe_ssn__getEffluentToVadose_ 009163b4     KernelInterface.obj
 0002:0001a430       _jwe_sz__getEffluentToDischarge_ 00916430     KernelInterface.obj
 0002:0001a434       _jwe_ssn__getEffluentToDischarge_ 00916434     KernelInterface.obj
 0002:0001a4b0       _jwe_sz__getEffluentToAg_  009164b0     KernelInterface.obj
 0002:0001a4b4       _jwe_ssn__getEffluentToAg_ 009164b4     KernelInterface.obj
 0002:0001a528       _jwe_sz__getNonPotableOutdoorUse_ 00916528     KernelInterface.obj
 0002:0001a52c       _jwe_ssn__getNonPotableOutdoorUse_ 0091652c     KernelInterface.obj
 0002:0001a5a0       _jwe_sz__getFlushesPCD_    009165a0     KernelInterface.obj
 0002:0001a5a4       _jwe_ssn__getFlushesPCD_   009165a4     KernelInterface.obj
 0002:0001a620       _jwe_sz__getParmBlackWaterPct_ 00916620     KernelInterface.obj
 0002:0001a624       _jwe_ssn__getParmBlackWaterPct_ 00916624     KernelInterface.obj
 0002:0001a6a0       _jwe_sz__setParmBlackWaterPct_ 009166a0     KernelInterface.obj
 0002:0001a6a4       _jwe_ssn__setParmBlackWaterPct_ 009166a4     KernelInterface.obj
 0002:0001a740       _jwe_sz__getShowerBathPCD_ 00916740     KernelInterface.obj
 0002:0001a744       _jwe_ssn__getShowerBathPCD_ 00916744     KernelInterface.obj
 0002:0001a7c0       _jwe_sz__setShowerBathPCT_ 009167c0     KernelInterface.obj
 0002:0001a7c4       _jwe_ssn__setShowerBathPCT_ 009167c4     KernelInterface.obj
 0002:0001a848       _jwe_sz__getDemandDeficit_ 00916848     KernelInterface.obj
 0002:0001a84c       _jwe_ssn__getDemandDeficit_ 0091684c     KernelInterface.obj
 0002:0001a8c8       _jwe_sz__setParmAllStraws_ 009168c8     KernelInterface.obj
 0002:0001a8cc       _jwe_ssn__setParmAllStraws_ 009168cc     KernelInterface.obj
 0002:0001a948       _jwe_sz__getNewWaterSupplies_ 00916948     KernelInterface.obj
 0002:0001a94c       _jwe_ssn__getNewWaterSupplies_ 0091694c     KernelInterface.obj
 0002:0001a9c8       _jwe_sz__setNewWaterSupplies_ 009169c8     KernelInterface.obj
 0002:0001a9cc       _jwe_ssn__setNewWaterSupplies_ 009169cc     KernelInterface.obj
 0002:0001aa68       _jwe_sz__getNewWaterSuppliesUsed_ 00916a68     KernelInterface.obj
 0002:0001aa6c       _jwe_ssn__getNewWaterSuppliesUsed_ 00916a6c     KernelInterface.obj
 0002:0001aae8       _jwe_sz__getCreditDeficits_ 00916ae8     KernelInterface.obj
 0002:0001aaec       _jwe_ssn__getCreditDeficits_ 00916aec     KernelInterface.obj
 0002:0001ab68       _jwe_sz__getTotalCredits_  00916b68     KernelInterface.obj
 0002:0001ab6c       _jwe_ssn__getTotalCredits_ 00916b6c     KernelInterface.obj
 0002:0001abe8       _jwe_sz__getIncidentalCredits_ 00916be8     KernelInterface.obj
 0002:0001abec       _jwe_ssn__getIncidentalCredits_ 00916bec     KernelInterface.obj
 0002:0001ac68       _jwe_sz__getAgToMuniAddedCredits_ 00916c68     KernelInterface.obj
 0002:0001ac6c       _jwe_ssn__getAgToMuniAddedCredits_ 00916c6c     KernelInterface.obj
 0002:0001ace8       _jwe_sz__getTotalAddedCredits_ 00916ce8     KernelInterface.obj
 0002:0001acec       _jwe_ssn__getTotalAddedCredits_ 00916cec     KernelInterface.obj
 0002:0001ad68       _jwe_sz__getNormalFlowEmpiricalMax_ 00916d68     KernelInterface.obj
 0002:0001ad6c       _jwe_ssn__getNormalFlowEmpiricalMax_ 00916d6c     KernelInterface.obj
 0002:0001adf0       _jwe_sz__setNormalFlowEmpiricalMax_ 00916df0     KernelInterface.obj
 0002:0001adf4       _jwe_ssn__setNormalFlowEmpiricalMax_ 00916df4     KernelInterface.obj
 0002:0001ae98       _jwe_sz__getRegionalGroundwater_ 00916e98     KernelInterface.obj
 0002:0001ae9c       _jwe_ssn__getRegionalGroundwater_ 00916e9c     KernelInterface.obj
 0002:0001af10       _jwe_sz__getAgAndOtherPumping_ 00916f10     KernelInterface.obj
 0002:0001af14       _jwe_ssn__getAgAndOtherPumping_ 00916f14     KernelInterface.obj
 0002:0001af88       _jwe_sz__getRegionalInflow_ 00916f88     KernelInterface.obj
 0002:0001af8c       _jwe_ssn__getRegionalInflow_ 00916f8c     KernelInterface.obj
 0002:0001b000       _jwe_sz__getRegionalOutflow_ 00917000     KernelInterface.obj
 0002:0001b004       _jwe_ssn__getRegionalOutflow_ 00917004     KernelInterface.obj
 0002:0001b078       _jwe_sz__getRegionalRecharge_ 00917078     KernelInterface.obj
 0002:0001b07c       _jwe_ssn__getRegionalRecharge_ 0091707c     KernelInterface.obj
 0002:0001b0f0       _jwe_sz__getNaturalRecharge_ 009170f0     KernelInterface.obj
 0002:0001b0f4       _jwe_ssn__getNaturalRecharge_ 009170f4     KernelInterface.obj
 0002:0001b168       _jwe_sz__getfluxVadoseToAquifer_ 00917168     KernelInterface.obj
 0002:0001b16c       _jwe_ssn__getfluxVadoseToAquifer_ 0091716c     KernelInterface.obj
 0002:0001b1e8       _jwe_sz__getAgToVadoseFlux_ 009171e8     KernelInterface.obj
 0002:0001b1ec       _jwe_ssn__getAgToVadoseFlux_ 009171ec     KernelInterface.obj
 0002:0001b260       _jwe_sz__getCAGRD_         00917260     KernelInterface.obj
 0002:0001b264       _jwe_ssn__getCAGRD_        00917264     KernelInterface.obj
 0002:0001b2d8       _jwe_sz__setCAGRD_         009172d8     KernelInterface.obj
 0002:0001b2dc       _jwe_ssn__setCAGRD_        009172dc     KernelInterface.obj
 0002:0001b360       _jwe_sz__set_parmVinze_Johnston_ 00917360     KernelInterface.obj
 0002:0001b364       _jwe_ssn__set_parmVinze_Johnston_ 00917364     KernelInterface.obj
 0002:0001b3f8       _jwe_sz__getProviderGPCD_  009173f8     KernelInterface.obj
 0002:0001b3fc       _jwe_ssn__getProviderGPCD_ 009173fc     KernelInterface.obj
 0002:0001b478       _jwe_sz__setProviderGPCD_  00917478     KernelInterface.obj
 0002:0001b47c       _jwe_ssn__setProviderGPCD_ 0091747c     KernelInterface.obj
 0002:0001b518       _jwe_sz__getProviderGPCDraw_ 00917518     KernelInterface.obj
 0002:0001b51c       _jwe_ssn__getProviderGPCDraw_ 0091751c     KernelInterface.obj
 0002:0001b598       _jwe_sz__getProviderGPCDres_ 00917598     KernelInterface.obj
 0002:0001b59c       _jwe_ssn__getProviderGPCDres_ 0091759c     KernelInterface.obj
 0002:0001b618       _jwe_sz__getProviderGPCDind_ 00917618     KernelInterface.obj
 0002:0001b61c       _jwe_ssn__getProviderGPCDind_ 0091761c     KernelInterface.obj
 0002:0001b698       _jwe_sz__setWaterCommercialTurf_ 00917698     KernelInterface.obj
 0002:0001b69c       _jwe_ssn__setWaterCommercialTurf_ 0091769c     KernelInterface.obj
 0002:0001b720       _jwe_sz__getGPCDResBehavior_ 00917720     KernelInterface.obj
 0002:0001b724       _jwe_ssn__getGPCDResBehavior_ 00917724     KernelInterface.obj
 0002:0001b7a8       _jwe_sz__setGPCDResBehavior_ 009177a8     KernelInterface.obj
 0002:0001b7ac       _jwe_ssn__setGPCDResBehavior_ 009177ac     KernelInterface.obj
 0002:0001b830       _jwe_sz__get_APIinterFaceStatus_ 00917830     KernelInterface.obj
 0002:0001b834       _jwe_ssn__get_APIinterFaceStatus_ 00917834     KernelInterface.obj
 0002:0001b8a8       _jwe_sz__set_APIinterFaceStatus_ 009178a8     KernelInterface.obj
 0002:0001b8ac       _jwe_ssn__set_APIinterFaceStatus_ 009178ac     KernelInterface.obj
 0002:0001b940       _jwe_sz__setProviderFlowToCOdelta_AF_ 00917940     KernelInterface.obj
 0002:0001b944       _jwe_ssn__setProviderFlowToCOdelta_AF_ 00917944     KernelInterface.obj
 0002:0001b9e0       _jwe_sz__getProviderCOdelataRatioAZ_ 009179e0     KernelInterface.obj
 0002:0001b9e4       _jwe_ssn__getProviderCOdelataRatioAZ_ 009179e4     KernelInterface.obj
 0002:0001ba60       _jwe_sz__setDefaultPumpingMandIPct_ 00917a60     KernelInterface.obj
 0002:0001ba64       _jwe_ssn__setDefaultPumpingMandIPct_ 00917a64     KernelInterface.obj
 0002:0001bb00       _jwe_sz__getDefaultPumpingMandIPct_ 00917b00     KernelInterface.obj
 0002:0001bb04       _jwe_ssn__getDefaultPumpingMandIPct_ 00917b04     KernelInterface.obj
 0002:0001bb80       _jwe_sz__getCAPlossPotentialPriority4_AF_ 00917b80     KernelInterface.obj
 0002:0001bb84       _jwe_ssn__getCAPlossPotentialPriority4_AF_ 00917b84     KernelInterface.obj
 0002:0001bc00       _jwe_sz__getCAPlossPotentialPiority5_AF_ 00917c00     KernelInterface.obj
 0002:0001bc04       _jwe_ssn__getCAPlossPotentialPiority5_AF_ 00917c04     KernelInterface.obj
 0002:0001bc80       _jwe_sz__getCAPpriority4NotUsed_AF_ 00917c80     KernelInterface.obj
 0002:0001bc84       _jwe_ssn__getCAPpriority4NotUsed_AF_ 00917c84     KernelInterface.obj
 0002:0001bd00       _jwe_sz__getCAPpriority5NotUsed_AF_ 00917d00     KernelInterface.obj
 0002:0001bd04       _jwe_ssn__getCAPpriority5NotUsed_AF_ 00917d04     KernelInterface.obj
 0002:0001bd80       _jwe_sz__setParmGrayWater_ 00917d80     KernelInterface.obj
 0002:0001bd84       _jwe_ssn__setParmGrayWater_ 00917d84     KernelInterface.obj
 0002:0001be08       _jwe_sz__setParmGrayWaterCompliance_ 00917e08     KernelInterface.obj
 0002:0001be0c       _jwe_ssn__setParmGrayWaterCompliance_ 00917e0c     KernelInterface.obj
 0002:0001be88       _jwe_sz__setParmYearsToAdopt_ 00917e88     KernelInterface.obj
 0002:0001be8c       _jwe_ssn__setParmYearsToAdopt_ 00917e8c     KernelInterface.obj
 0002:0001bf08       _jwe_sz__setParmRainWaterHarvesting_ 00917f08     KernelInterface.obj
 0002:0001bf0c       _jwe_ssn__setParmRainWaterHarvesting_ 00917f0c     KernelInterface.obj
 0002:0001bf88       _jwe_sz__setParmRainWaterHarvestResOnly_ 00917f88     KernelInterface.obj
 0002:0001bf8c       _jwe_ssn__setParmRainWaterHarvestResOnly_ 00917f8c     KernelInterface.obj
 0002:0001c008       _jwe_sz__setParmRainWaterHarvestComOnly_ 00918008     KernelInterface.obj
 0002:0001c00c       _jwe_ssn__setParmRainWaterHarvestComOnly_ 0091800c     KernelInterface.obj
 0002:0001c088       _jwe_sz__setParmStormWaterHarvesting_ 00918088     KernelInterface.obj
 0002:0001c08c       _jwe_ssn__setParmStormWaterHarvesting_ 0091808c     KernelInterface.obj
 0002:0001c108       _jwe_sz__setStormWaterCapacity_m3_ 00918108     KernelInterface.obj
 0002:0001c10c       _jwe_ssn__setStormWaterCapacity_m3_ 0091810c     KernelInterface.obj
 0002:0001c1a8       _jwe_sz__getStormWaterCapacity_m3_ 009181a8     KernelInterface.obj
 0002:0001c1ac       _jwe_ssn__getStormWaterCapacity_m3_ 009181ac     KernelInterface.obj
 0002:0001c228       _jwe_sz__setParmIwaniecPPtoAgEffluent_ 00918228     KernelInterface.obj
 0002:0001c22c       _jwe_ssn__setParmIwaniecPPtoAgEffluent_ 0091822c     KernelInterface.obj
 0002:0001c2a8       _jwe_sz__setParmIwaniecLeaks_ 009182a8     KernelInterface.obj
 0002:0001c2ac       _jwe_ssn__setParmIwaniecLeaks_ 009182ac     KernelInterface.obj
 0002:0001c328       _jwe_sz__getGPCD_resGrayWater_ 00918328     KernelInterface.obj
 0002:0001c32c       _jwe_ssn__getGPCD_resGrayWater_ 0091832c     KernelInterface.obj
 0002:0001c3a8       _jwe_sz__getGPCD_comGrayWater_ 009183a8     KernelInterface.obj
 0002:0001c3ac       _jwe_ssn__getGPCD_comGrayWater_ 009183ac     KernelInterface.obj
 0002:0001c428       _jwe_sz__getGPCD_indGrayWater_ 00918428     KernelInterface.obj
 0002:0001c42c       _jwe_ssn__getGPCD_indGrayWater_ 0091842c     KernelInterface.obj
 0002:0001c4a8       _jwe_sz__setparmIwaniecScenarios_ 009184a8     KernelInterface.obj
 0002:0001c4ac       _jwe_ssn__setparmIwaniecScenarios_ 009184ac     KernelInterface.obj
 0002:0001c528       _jwe_sz__setScenario_      00918528     KernelInterface.obj
 0002:0001c52c       _jwe_ssn__setScenario_     0091852c     KernelInterface.obj
 0002:0001c5a8       _jwe_sz__getScenario_      009185a8     KernelInterface.obj
 0002:0001c5ac       _jwe_ssn__getScenario_     009185ac     KernelInterface.obj
 0002:0001c628       _jwe_sz__get_harvestedStormWater_ 00918628     KernelInterface.obj
 0002:0001c62c       _jwe_ssn__get_harvestedStormWater_ 0091862c     KernelInterface.obj
 0002:0001c6a8       _jwe_sz__setAgEfficiency_  009186a8     KernelInterface.obj
 0002:0001c6ac       _jwe_ssn__setAgEfficiency_ 009186ac     KernelInterface.obj
 0002:0001c728       _jwe_sz__getAgPumpingTotal_ 00918728     KernelInterface.obj
 0002:0001c72c       _jwe_ssn__getAgPumpingTotal_ 0091872c     KernelInterface.obj
 0002:0001c7a8       _jwe_sz__getAgSurfaceTotal_ 009187a8     KernelInterface.obj
 0002:0001c7ac       _jwe_ssn__getAgSurfaceTotal_ 009187ac     KernelInterface.obj
 0002:0001c828       _jwe_sz__get_effluentUsedAg_ 00918828     KernelInterface.obj
 0002:0001c82c       _jwe_ssn__get_effluentUsedAg_ 0091882c     KernelInterface.obj
 0002:0001c8a8       _jwe_sz__getUseLCLU_       009188a8     KernelInterface.obj
 0002:0001c8ac       _jwe_ssn__getUseLCLU_      009188ac     KernelInterface.obj
 0002:0001c920       _jwe_sz__setUseLCLU_       00918920     KernelInterface.obj
 0002:0001c924       _jwe_ssn__setUseLCLU_      00918924     KernelInterface.obj
 0002:0001c9a0       _jwe_sz__getRainWaterHarvested_ 009189a0     KernelInterface.obj
 0002:0001c9a4       _jwe_ssn__getRainWaterHarvested_ 009189a4     KernelInterface.obj
 0002:0001ca20       _jwe_sz__getRainWaterHarvested_SF_ 00918a20     KernelInterface.obj
 0002:0001ca24       _jwe_ssn__getRainWaterHarvested_SF_ 00918a24     KernelInterface.obj
 0002:0001caa0       _jwe_sz__getRainWaterHarvested_MF_ 00918aa0     KernelInterface.obj
 0002:0001caa4       _jwe_ssn__getRainWaterHarvested_MF_ 00918aa4     KernelInterface.obj
 0002:0001cb20       _jwe_sz__getRainWaterHarvested_PU_ 00918b20     KernelInterface.obj
 0002:0001cb24       _jwe_ssn__getRainWaterHarvested_PU_ 00918b24     KernelInterface.obj
 0002:0001cba0       _jwe_sz__getRainWaterHarvested_COM_ 00918ba0     KernelInterface.obj
 0002:0001cba4       _jwe_ssn__getRainWaterHarvested_COM_ 00918ba4     KernelInterface.obj
 0002:0001cc20       _jwe_sz__getRainHarvestToTotalOutdoor_ 00918c20     KernelInterface.obj
 0002:0001cc24       _jwe_ssn__getRainHarvestToTotalOutdoor_ 00918c24     KernelInterface.obj
 0002:0001cca0       _jwe_sz__getGrayWaterToTotalOutdoor_ 00918ca0     KernelInterface.obj
 0002:0001cca4       _jwe_ssn__getGrayWaterToTotalOutdoor_ 00918ca4     KernelInterface.obj
 0002:0001cd20       _jwe_sz__getReclaimedToTotalOutdoor_ 00918d20     KernelInterface.obj
 0002:0001cd24       _jwe_ssn__getReclaimedToTotalOutdoor_ 00918d24     KernelInterface.obj
 0002:0001cda0       _jwe_sz__getAnnualDemand_MD_AF_ 00918da0     KernelInterface.obj
 0002:0001cda4       _jwe_ssn__getAnnualDemand_MD_AF_ 00918da4     KernelInterface.obj
 0002:0001ce20       _jwe_sz__getAnnualDemand_HD_AF_ 00918e20     KernelInterface.obj
 0002:0001ce24       _jwe_ssn__getAnnualDemand_HD_AF_ 00918e24     KernelInterface.obj
 0002:0001cea0       _jwe_sz__getAnnualDemand_LD_AF_ 00918ea0     KernelInterface.obj
 0002:0001cea4       _jwe_ssn__getAnnualDemand_LD_AF_ 00918ea4     KernelInterface.obj
 0002:0001cf20       _jwe_sz__getAnnualDemand_Turf_AF_ 00918f20     KernelInterface.obj
 0002:0001cf24       _jwe_ssn__getAnnualDemand_Turf_AF_ 00918f24     KernelInterface.obj
 0002:0001cfa0       _jwe_sz__getAnnualDemand_GWay_AF_ 00918fa0     KernelInterface.obj
 0002:0001cfa4       _jwe_ssn__getAnnualDemand_GWay_AF_ 00918fa4     KernelInterface.obj
 0002:0001d020       _jwe_sz__getAnnualDemand_Tree_AF_ 00919020     KernelInterface.obj
 0002:0001d024       _jwe_ssn__getAnnualDemand_Tree_AF_ 00919024     KernelInterface.obj
 0002:0001d0a0       _jwe_sz__getNonpotableTotalUsed_AF_ 009190a0     KernelInterface.obj
 0002:0001d0a4       _jwe_ssn__getNonpotableTotalUsed_AF_ 009190a4     KernelInterface.obj
 0002:0001d120       _jwe_sz__getResOutdoorGPCD_PU_ 00919120     KernelInterface.obj
 0002:0001d124       _jwe_ssn__getResOutdoorGPCD_PU_ 00919124     KernelInterface.obj
 0002:0001d1a0       _jwe_sz__getResIndoorGPCD_PU_ 009191a0     KernelInterface.obj
 0002:0001d1a4       _jwe_ssn__getResIndoorGPCD_PU_ 009191a4     KernelInterface.obj
 0002:0001d220       _jwe_sz__getResOutdoorGPCD_MD_ 00919220     KernelInterface.obj
 0002:0001d224       _jwe_ssn__getResOutdoorGPCD_MD_ 00919224     KernelInterface.obj
 0002:0001d2a0       _jwe_sz__getResIndoorGPCD_MD_ 009192a0     KernelInterface.obj
 0002:0001d2a4       _jwe_ssn__getResIndoorGPCD_MD_ 009192a4     KernelInterface.obj
 0002:0001d320       _jwe_sz__getResOutdoorGPCD_HD_ 00919320     KernelInterface.obj
 0002:0001d324       _jwe_ssn__getResOutdoorGPCD_HD_ 00919324     KernelInterface.obj
 0002:0001d3a0       _jwe_sz__getResIndoorGPCD_HD_ 009193a0     KernelInterface.obj
 0002:0001d3a4       _jwe_ssn__getResIndoorGPCD_HD_ 009193a4     KernelInterface.obj
 0002:0001d420       _jwe_sz__setRainFallFactor_ 00919420     KernelInterface.obj
 0002:0001d424       _jwe_ssn__setRainFallFactor_ 00919424     KernelInterface.obj
 0002:0001d4a0       _jwe_sz__getResIndoorUse_  009194a0     KernelInterface.obj
 0002:0001d4a4       _jwe_ssn__getResIndoorUse_ 009194a4     KernelInterface.obj
 0002:0001d518       _jwe_sz__getResOutdoorUse_ 00919518     KernelInterface.obj
 0002:0001d51c       _jwe_ssn__getResOutdoorUse_ 0091951c     KernelInterface.obj
 0002:0001d590       _jwe_sz__getAgRetirementPct_ 00919590     KernelInterface.obj
 0002:0001d594       _jwe_ssn__getAgRetirementPct_ 00919594     KernelInterface.obj
 0002:0001d608       _jwe_sz__setAgRetirementPct_ 00919608     KernelInterface.obj
 0002:0001d60c       _jwe_ssn__setAgRetirementPct_ 0091960c     KernelInterface.obj
 0002:0001fd38       _jwe_sz__lm_lulc_          0091bd38     LandUseLandCover.obj
 0002:0001fd3c       _jwe_sz__lm_lulc@_initlulc_ 0091bd3c     LandUseLandCover.obj
 0002:0001fd40       _jwe_sz__lm_lulc@_openfiles_lu_ 0091bd40     LandUseLandCover.obj
 0002:0001fd44       _jwe_sz__lm_lulc@_readfiles_lu_ 0091bd44     LandUseLandCover.obj
 0002:0001fd48       _jwe_ssn__lm_lulc@_readfiles_lu_ 0091bd48     LandUseLandCover.obj
 0002:0001fef0       _jwe_ssn__lm_lulc@_openfiles_lu_ 0091bef0     LandUseLandCover.obj
 0002:00020068       _jwe_ssn__lm_lulc@_initlulc_ 0091c068     LandUseLandCover.obj
 0002:00020134       _jwe_sz__lms_lulc_         0091c134     LandUseLandCover.obj
 0002:00020138       _jwe_sz__lms_lulc@_providerrcn_ 0091c138     LandUseLandCover.obj
 0002:0002013c       _jwe_sz__lms_lulc@_slcluarea_ 0091c13c     LandUseLandCover.obj
 0002:00020140       _jwe_sz__lms_lulc@_sproportionallandcover_ 0091c140     LandUseLandCover.obj
 0002:00020144       _jwe_sz__lms_lulc@_slanduselandcoverarea_ 0091c144     LandUseLandCover.obj
 0002:00020148       _jwe_sz__lms_lulc@_ssetwaterusebylclu_ 0091c148     LandUseLandCover.obj
 0002:0002014c       _jwe_sz__lms_lulc@_sgetwaterusebylclu_ 0091c14c     LandUseLandCover.obj
 0002:00020150       _jwe_sz__lms_lulc@_sgetrawefficiencies_ 0091c150     LandUseLandCover.obj
 0002:00020154       _jwe_sz__lms_lulc@_sgetweighting_ 0091c154     LandUseLandCover.obj
 0002:00020158       _jwe_sz__lms_lulc@_smultiplymatricies_ 0091c158     LandUseLandCover.obj
 0002:0002015c       _jwe_sz__lms_lulc@_getlclupct_ 0091c15c     LandUseLandCover.obj
 0002:00020160       _jwe_sz__lms_lulc@_setlinearlclu_ 0091c160     LandUseLandCover.obj
 0002:00020164       _jwe_sz__lms_lulc@_getlinearlclu_ 0091c164     LandUseLandCover.obj
 0002:00020168       _jwe_sz__lms_lulc@_logisticlclu_ 0091c168     LandUseLandCover.obj
 0002:0002016c       _jwe_sz__lms_lulc@_hyperbollclu_ 0091c16c     LandUseLandCover.obj
 0002:00020170       _jwe_sz__lms_lulc@_sdefaultlandcover_ 0091c170     LandUseLandCover.obj
 0002:00020174       _jwe_ssn__lms_lulc@_sdefaultlandcover_ 0091c174     LandUseLandCover.obj
 0002:000202b0       _jwe_ssn__lms_lulc@_hyperbollclu_ 0091c2b0     LandUseLandCover.obj
 0002:0002048c       _jwe_ssn__lms_lulc@_logisticlclu_ 0091c48c     LandUseLandCover.obj
 0002:00020668       _jwe_ssn__lms_lulc@_getlinearlclu_ 0091c668     LandUseLandCover.obj
 0002:00020768       _jwe_ssn__lms_lulc@_setlinearlclu_ 0091c768     LandUseLandCover.obj
 0002:00020898       _jwe_ssn__lms_lulc@_getlclupct_ 0091c898     LandUseLandCover.obj
 0002:00020a10       _jwe_ssn__lms_lulc@_smultiplymatricies_ 0091ca10     LandUseLandCover.obj
 0002:00020b74       _jwe_ssn__lms_lulc@_sgetweighting_ 0091cb74     LandUseLandCover.obj
 0002:00020d6c       _jwe_ssn__lms_lulc@_sgetrawefficiencies_ 0091cd6c     LandUseLandCover.obj
 0002:00020e74       _jwe_ssn__lms_lulc@_sgetwaterusebylclu_ 0091ce74     LandUseLandCover.obj
 0002:00020f90       _jwe_ssn__lms_lulc@_ssetwaterusebylclu_ 0091cf90     LandUseLandCover.obj
 0002:000210f4       _jwe_ssn__lms_lulc@_slanduselandcoverarea_ 0091d0f4     LandUseLandCover.obj
 0002:00021258       _jwe_ssn__lms_lulc@_sproportionallandcover_ 0091d258     LandUseLandCover.obj
 0002:000213f8       _jwe_ssn__lms_lulc@_slcluarea_ 0091d3f8     LandUseLandCover.obj
 0002:000214c4       _jwe_ssn__lms_lulc@_providerrcn_ 0091d4c4     LandUseLandCover.obj
 0002:00021664       _jwe_sz__initializelulc_   0091d664     LandUseLandCover.obj
 0002:00021668       _jwe_ssn__initializelulc_  0091d668     LandUseLandCover.obj
 0002:000216e4       _jwe_sz__sdefaultrcn_      0091d6e4     LandUseLandCover.obj
 0002:000216e8       _jwe_ssn__sdefaultrcn_     0091d6e8     LandUseLandCover.obj
 0002:00021804       _jwe_sz__sproviderrcn_     0091d804     LandUseLandCover.obj
 0002:00021808       _jwe_ssn__sproviderrcn_    0091d808     LandUseLandCover.obj
 0002:00021884       _jwe_sz__ssetlcludemand_   0091d884     LandUseLandCover.obj
 0002:00021888       _jwe_ssn__ssetlcludemand_  0091d888     LandUseLandCover.obj
 0002:00021904       _jwe_sz__sgetlcludemand_   0091d904     LandUseLandCover.obj
 0002:00021908       _jwe_ssn__sgetlcludemand_  0091d908     LandUseLandCover.obj
 0002:00021984       _jwe_sz__srunlcluarea_     0091d984     LandUseLandCover.obj
 0002:00021988       _jwe_ssn__srunlcluarea_    0091d988     LandUseLandCover.obj
 0002:00021a04       _jwe_sz__srunlclu_         0091da04     LandUseLandCover.obj
 0002:00021a08       _jwe_ssn__srunlclu_        0091da08     LandUseLandCover.obj
 0002:00022578       _jwe_sz__lm_meteorology_   0091e578     Meteorology.obj
 0002:0002257c       _jwe_sz__lm_meteorology@_initmeteo_ 0091e57c     Meteorology.obj
 0002:00022580       _jwe_sz__lm_meteorology@_openfiles_met_ 0091e580     Meteorology.obj
 0002:00022584       _jwe_sz__lm_meteorology@_readfiles_met_ 0091e584     Meteorology.obj
 0002:00022588       _jwe_ssn__lm_meteorology@_readfiles_met_ 0091e588     Meteorology.obj
 0002:00022a90       _jwe_ssn__lm_meteorology@_openfiles_met_ 0091ea90     Meteorology.obj
 0002:00022b94       _jwe_ssn__lm_meteorology@_initmeteo_ 0091eb94     Meteorology.obj
 0002:00022c78       _jwe_sz__initializemeteo_  0091ec78     Meteorology.obj
 0002:00022c7c       _jwe_ssn__initializemeteo_ 0091ec7c     Meteorology.obj
 0002:00022f30       _jwe_sz__lm_parametercontrol_ 0091ef30     Parameter_control.obj
 0002:00022f34       _jwe_sz__lm_parametercontrol@_initparmcontrol_ 0091ef34     Parameter_control.obj
 0002:00022f38       _jwe_sz__lm_parametercontrol@_openfiles_pc_ 0091ef38     Parameter_control.obj
 0002:00022f3c       _jwe_sz__lm_parametercontrol@_readfiles_pc_ 0091ef3c     Parameter_control.obj
 0002:00022f40       _jwe_sz__lm_parametercontrol@_initarrays_ 0091ef40     Parameter_control.obj
 0002:00022f44       _jwe_sz__lm_parametercontrol@_initparameters_ 0091ef44     Parameter_control.obj
 0002:00022f48       _jwe_sz__lm_parametercontrol@_initbaseparms_ 0091ef48     Parameter_control.obj
 0002:00022f4c       _jwe_sz__lm_parametercontrol@_initglobal_ 0091ef4c     Parameter_control.obj
 0002:00022f50       _jwe_sz__lm_parametercontrol@_initco_ 0091ef50     Parameter_control.obj
 0002:00022f54       _jwe_sz__lm_parametercontrol@_initsvt_ 0091ef54     Parameter_control.obj
 0002:00022f58       _jwe_sz__lm_parametercontrol@_initpopanddemand_ 0091ef58     Parameter_control.obj
 0002:00022f5c       _jwe_sz__lm_parametercontrol@_initcity_ 0091ef5c     Parameter_control.obj
 0002:00022f60       _jwe_sz__lm_parametercontrol@_initgeneral_ 0091ef60     Parameter_control.obj
 0002:00022f64       _jwe_sz__lm_parametercontrol@_initgwater_ 0091ef64     Parameter_control.obj
 0002:00022f68       _jwe_sz__lm_parametercontrol@_initgeneric_ 0091ef68     Parameter_control.obj
 0002:00022f6c       _jwe_sz__lm_parametercontrol@_initnew_ 0091ef6c     Parameter_control.obj
 0002:00022f70       _jwe_ssn__lm_parametercontrol@_initnew_ 0091ef70     Parameter_control.obj
 0002:0002326c       _jwe_ssn__lm_parametercontrol@_initgeneric_ 0091f26c     Parameter_control.obj
 0002:000234a0       _jwe_ssn__lm_parametercontrol@_initgwater_ 0091f4a0     Parameter_control.obj
 0002:000235f8       _jwe_ssn__lm_parametercontrol@_initgeneral_ 0091f5f8     Parameter_control.obj
 0002:00023874       _jwe_ssn__lm_parametercontrol@_initcity_ 0091f874     Parameter_control.obj
 0002:00024040       _jwe_ssn__lm_parametercontrol@_initpopanddemand_ 00920040     Parameter_control.obj
 0002:000242ec       _jwe_ssn__lm_parametercontrol@_initsvt_ 009202ec     Parameter_control.obj
 0002:000245a4       _jwe_ssn__lm_parametercontrol@_initco_ 009205a4     Parameter_control.obj
 0002:000246cc       _jwe_ssn__lm_parametercontrol@_initglobal_ 009206cc     Parameter_control.obj
 0002:00024858       _jwe_ssn__lm_parametercontrol@_initbaseparms_ 00920858     Parameter_control.obj
 0002:00024988       _jwe_ssn__lm_parametercontrol@_initparameters_ 00920988     Parameter_control.obj
 0002:00024acc       _jwe_ssn__lm_parametercontrol@_initarrays_ 00920acc     Parameter_control.obj
 0002:00024cd0       _jwe_ssn__lm_parametercontrol@_readfiles_pc_ 00920cd0     Parameter_control.obj
 0002:00024e84       _jwe_ssn__lm_parametercontrol@_openfiles_pc_ 00920e84     Parameter_control.obj
 0002:00024fe8       _jwe_ssn__lm_parametercontrol@_initparmcontrol_ 00920fe8     Parameter_control.obj
 0002:000250b4       _jwe_sz__lms_parametercontrol_ 009210b4     Parameter_control.obj
 0002:000250b8       _jwe_sz__lms_parametercontrol@_modifydesignations_ 009210b8     Parameter_control.obj
 0002:000250bc       _jwe_ssn__lms_parametercontrol@_modifydesignations_ 009210bc     Parameter_control.obj
 0002:000251f8       _jwe_sz__initializemodel_  009211f8     Parameter_control.obj
 0002:000251fc       _jwe_ssn__initializemodel_ 009211fc     Parameter_control.obj
 0002:00025288       _jwe_sz__pcityparametercontrol_a_ 00921288     Parameter_control.obj
 0002:0002528c       _jwe_ssn__pcityparametercontrol_a_ 0092128c     Parameter_control.obj
 0002:00025718       _jwe_sz__invokedefault_    00921718     Parameter_control.obj
 0002:0002571c       _jwe_ssn__invokedefault_   0092171c     Parameter_control.obj
 0002:00025800       _jwe_sz__checkdefault_     00921800     Parameter_control.obj
 0002:00025804       _jwe_ssn__checkdefault_    00921804     Parameter_control.obj
 0002:00025a18       _jwe_sz__sparametercontrol_tstep_ 00921a18     Parameter_control.obj
 0002:00025a1c       _jwe_ssn__sparametercontrol_tstep_ 00921a1c     Parameter_control.obj
 0002:00025af0       _jwe_sz__clearinclude_     00921af0     Parameter_control.obj
 0002:00025af4       _jwe_ssn__clearinclude_    00921af4     Parameter_control.obj
 0002:00025b70       _jwe_sz__sinputscity_      00921b70     Parameter_control.obj
 0002:00025b74       _jwe_ssn__sinputscity_     00921b74     Parameter_control.obj
 0002:00026730       _jwe_sz__MAIN__            00922730     Program.obj
 0002:00026734       _jwe_ssn__MAIN__           00922734     Program.obj
 0002:000267d0       _jwe_sz__parminitialization_ 009227d0     Program.obj
 0002:000267d4       _jwe_ssn__parminitialization_ 009227d4     Program.obj
 0002:000268e0       _jwe_sz__lms_provider_     009228e0     Provider.obj
 0002:000268e4       _jwe_sz__lms_provider@_writetodisk__ 009228e4     Provider.obj
 0002:000268e8       _jwe_sz__lms_provider@_sprovider_ 009228e8     Provider.obj
 0002:000268ec       _jwe_sz__lms_provider@_ademandsupply_ 009228ec     Provider.obj
 0002:000268f0       _jwe_sz__lms_provider@_waterbanking_ 009228f0     Provider.obj
 0002:000268f4       _jwe_sz__lms_provider@_clearvariables_ 009228f4     Provider.obj
 0002:000268f8       _jwe_sz__lms_provider@_sendtocitymodelnewvar_ 009228f8     Provider.obj
 0002:000268fc       _jwe_sz__lms_provider@_adifference_ 009228fc     Provider.obj
 0002:00026900       _jwe_ssn__lms_provider@_adifference_ 00922900     Provider.obj
 0002:00026a70       _jwe_ssn__lms_provider@_sendtocitymodelnewvar_ 00922a70     Provider.obj
 0002:00026d0c       _jwe_ssn__lms_provider@_clearvariables_ 00922d0c     Provider.obj
 0002:00026e18       _jwe_ssn__lms_provider@_waterbanking_ 00922e18     Provider.obj
 0002:0002701c       _jwe_ssn__lms_provider@_ademandsupply_ 0092301c     Provider.obj
 0002:00027964       _jwe_ssn__lms_provider@_sprovider_ 00923964     Provider.obj
 0002:00027af0       _jwe_ssn__lms_provider@_writetodisk__ 00923af0     Provider.obj
 0002:00027bdc       _jwe_sz__nexchangevariables_ 00923bdc     Provider.obj
 0002:00027be0       _jwe_ssn__nexchangevariables_ 00923be0     Provider.obj
 0002:00027c84       _jwe_sz__pwaterproviders_  00923c84     Provider.obj
 0002:00027c88       _jwe_ssn__pwaterproviders_ 00923c88     Provider.obj
 0002:000286c0       _jwe_sz__lm_providerpopulation_ 009246c0     ProviderPopulationandDemand.obj
 0002:000286c4       _jwe_sz__lm_providerpopulation@_initpop_ 009246c4     ProviderPopulationandDemand.obj
 0002:000286c8       _jwe_sz__lm_providerpopulation@_openfiles_pop_ 009246c8     ProviderPopulationandDemand.obj
 0002:000286cc       _jwe_sz__lm_providerpopulation@_readfiles_pop_ 009246cc     ProviderPopulationandDemand.obj
 0002:000286d0       _jwe_sz__lm_providerpopulation@_initialize_ 009246d0     ProviderPopulationandDemand.obj
 0002:000286d4       _jwe_ssn__lm_providerpopulation@_initialize_ 009246d4     ProviderPopulationandDemand.obj
 0002:000287dc       _jwe_ssn__lm_providerpopulation@_readfiles_pop_ 009247dc     ProviderPopulationandDemand.obj
 0002:00028b50       _jwe_ssn__lm_providerpopulation@_openfiles_pop_ 00924b50     ProviderPopulationandDemand.obj
 0002:00028cf8       _jwe_ssn__lm_providerpopulation@_initpop_ 00924cf8     ProviderPopulationandDemand.obj
 0002:00028dd8       _jwe_sz__lms_providerpopanddemand_ 00924dd8     ProviderPopulationandDemand.obj
 0002:00028ddc       _jwe_sz__lms_providerpopanddemand@_calcdemand_ 00924ddc     ProviderPopulationandDemand.obj
 0002:00028de0       _jwe_sz__lms_providerpopanddemand@_lulcdemand_ 00924de0     ProviderPopulationandDemand.obj
 0002:00028de4       _jwe_sz__lms_providerpopanddemand@_foutdooruse_ 00924de4     ProviderPopulationandDemand.obj
 0002:00028de8       _jwe_sz__lms_providerpopanddemand@_primegpcd_ 00924de8     ProviderPopulationandDemand.obj
 0002:00028dec       _jwe_sz__lms_providerpopanddemand@_readnewgpcd_ 00924dec     ProviderPopulationandDemand.obj
 0002:00028df0       _jwe_sz__lms_providerpopanddemand@_gpcdses_ 00924df0     ProviderPopulationandDemand.obj
 0002:00028df4       _jwe_sz__lms_providerpopanddemand@_calculatealpha_ 00924df4     ProviderPopulationandDemand.obj
 0002:00028df8       _jwe_sz__lms_providerpopanddemand@_gpcd_target_ 00924df8     ProviderPopulationandDemand.obj
 0002:00028dfc       _jwe_sz__lms_providerpopanddemand@_sholttarget_ 00924dfc     ProviderPopulationandDemand.obj
 0002:00028e00       _jwe_sz__lms_providerpopanddemand@_fholt_ 00924e00     ProviderPopulationandDemand.obj
 0002:00028e04       _jwe_sz__lms_providerpopanddemand@_fminmaxalpha_ 00924e04     ProviderPopulationandDemand.obj
 0002:00028e08       _jwe_sz__lms_providerpopanddemand@_fminmaxbeta_ 00924e08     ProviderPopulationandDemand.obj
 0002:00028e0c       _jwe_sz__lms_providerpopanddemand@_sfindalphabetastart_ 00924e0c     ProviderPopulationandDemand.obj
 0002:00028e10       _jwe_sz__lms_providerpopanddemand@_slinearregression_ 00924e10     ProviderPopulationandDemand.obj
 0002:00028e14       _jwe_sz__lms_providerpopanddemand@_sfindbetagamma_ 00924e14     ProviderPopulationandDemand.obj
 0002:00028e18       _jwe_sz__lms_providerpopanddemand@_ssetgpcd_ 00924e18     ProviderPopulationandDemand.obj
 0002:00028e1c       _jwe_ssn__lms_providerpopanddemand@_ssetgpcd_ 00924e1c     ProviderPopulationandDemand.obj
 0002:00028f44       _jwe_ssn__lms_providerpopanddemand@_sfindbetagamma_ 00924f44     ProviderPopulationandDemand.obj
 0002:00029178       _jwe_ssn__lms_providerpopanddemand@_slinearregression_ 00925178     ProviderPopulationandDemand.obj
 0002:000292e4       _jwe_ssn__lms_providerpopanddemand@_sfindalphabetastart_ 009252e4     ProviderPopulationandDemand.obj
 0002:000294b4       _jwe_ssn__lms_providerpopanddemand@_fminmaxbeta_ 009254b4     ProviderPopulationandDemand.obj
 0002:00029580       _jwe_ssn__lms_providerpopanddemand@_fminmaxalpha_ 00925580     ProviderPopulationandDemand.obj
 0002:0002964c       _jwe_ssn__lms_providerpopanddemand@_fholt_ 0092564c     ProviderPopulationandDemand.obj
 0002:00029754       _jwe_ssn__lms_providerpopanddemand@_sholttarget_ 00925754     ProviderPopulationandDemand.obj
 0002:00029944       _jwe_ssn__lms_providerpopanddemand@_gpcd_target_ 00925944     ProviderPopulationandDemand.obj
 0002:00029a10       _jwe_ssn__lms_providerpopanddemand@_calculatealpha_ 00925a10     ProviderPopulationandDemand.obj
 0002:00029bc4       _jwe_ssn__lms_providerpopanddemand@_gpcdses_ 00925bc4     ProviderPopulationandDemand.obj
 0002:0002a05c       _jwe_ssn__lms_providerpopanddemand@_readnewgpcd_ 0092605c     ProviderPopulationandDemand.obj
 0002:0002a13c       _jwe_ssn__lms_providerpopanddemand@_primegpcd_ 0092613c     ProviderPopulationandDemand.obj
 0002:0002a4d8       _jwe_ssn__lms_providerpopanddemand@_foutdooruse_ 009264d8     ProviderPopulationandDemand.obj
 0002:0002a5c4       _jwe_ssn__lms_providerpopanddemand@_lulcdemand_ 009265c4     ProviderPopulationandDemand.obj
 0002:0002a690       _jwe_ssn__lms_providerpopanddemand@_calcdemand_ 00926690     ProviderPopulationandDemand.obj
 0002:0002b348       _jwe_sz__initializepopanddemand_ 00927348     ProviderPopulationandDemand.obj
 0002:0002b34c       _jwe_ssn__initializepopanddemand_ 0092734c     ProviderPopulationandDemand.obj
 0002:0002b3d4       _jwe_sz__readgpcdglobal_   009273d4     ProviderPopulationandDemand.obj
 0002:0002b3d8       _jwe_ssn__readgpcdglobal_  009273d8     ProviderPopulationandDemand.obj
 0002:0002b460       _jwe_sz__readprovidergpcd_ 00927460     ProviderPopulationandDemand.obj
 0002:0002b464       _jwe_ssn__readprovidergpcd_ 00927464     ProviderPopulationandDemand.obj
 0002:0002b4ec       _jwe_sz__foutdoorestimate_ 009274ec     ProviderPopulationandDemand.obj
 0002:0002b4f0       _jwe_ssn__foutdoorestimate_ 009274f0     ProviderPopulationandDemand.obj
 0002:0002b5a8       _jwe_sz__fgpcdmethodvalues_ 009275a8     ProviderPopulationandDemand.obj
 0002:0002b5ac       _jwe_ssn__fgpcdmethodvalues_ 009275ac     ProviderPopulationandDemand.obj
 0002:0002b674       _jwe_sz__punmetdemand_     00927674     ProviderPopulationandDemand.obj
 0002:0002b678       _jwe_ssn__punmetdemand_    00927678     ProviderPopulationandDemand.obj
 0002:0002b7e0       _jwe_sz__pdemand_          009277e0     ProviderPopulationandDemand.obj
 0002:0002b7e4       _jwe_ssn__pdemand_         009277e4     ProviderPopulationandDemand.obj
 0002:0002b934       _jwe_sz__pglobaldemand_    00927934     ProviderPopulationandDemand.obj
 0002:0002b938       _jwe_ssn__pglobaldemand_   00927938     ProviderPopulationandDemand.obj
 0002:0002b9f8       _jwe_sz__scleardemand_     009279f8     ProviderPopulationandDemand.obj
 0002:0002b9fc       _jwe_ssn__scleardemand_    009279fc     ProviderPopulationandDemand.obj
 0002:0002bae4       _jwe_sz__providerarea2012_ 00927ae4     ProviderPopulationandDemand.obj
 0002:0002bae8       _jwe_ssn__providerarea2012_ 00927ae8     ProviderPopulationandDemand.obj
 0002:0002bb88       _jwe_sz__providerareaag_2012_ 00927b88     ProviderPopulationandDemand.obj
 0002:0002bb8c       _jwe_ssn__providerareaag_2012_ 00927b8c     ProviderPopulationandDemand.obj
 0002:0002cb98       _jwe_sz__typefiveexpsrp_   00928b98     Regressions.obj
 0002:0002cb9c       _jwe_ssn__typefiveexpsrp_  00928b9c     Regressions.obj
 0002:0002cd24       _jwe_sz__typefiveexp_      00928d24     Regressions.obj
 0002:0002cd28       _jwe_ssn__typefiveexp_     00928d28     Regressions.obj
 0002:0002cee8       _jwe_sz__typefiveexpres_   00928ee8     Regressions.obj
 0002:0002ceec       _jwe_ssn__typefiveexpres_  00928eec     Regressions.obj
 0002:0002d144       _jwe_sz__typefiveexpcio_   00929144     Regressions.obj
 0002:0002d148       _jwe_ssn__typefiveexpcio_  00929148     Regressions.obj
 0002:0002d398       _jwe_sz__normal_           00929398     Regressions.obj
 0002:0002d39c       _jwe_ssn__normal_          0092939c     Regressions.obj
 0002:0002d654       _jwe_sz__zdistribution_    00929654     Regressions.obj
 0002:0002d658       _jwe_ssn__zdistribution_   00929658     Regressions.obj
 0002:0002d6e8       _jwe_sz__donormal_         009296e8     Regressions.obj
 0002:0002d6ec       _jwe_ssn__donormal_        009296ec     Regressions.obj
 0002:0002d794       _jwe_sz__demandnormal_     00929794     Regressions.obj
 0002:0002d798       _jwe_ssn__demandnormal_    00929798     Regressions.obj
 0002:0002d830       _jwe_sz__nmodifier_        00929830     Regressions.obj
 0002:0002d834       _jwe_ssn__nmodifier_       00929834     Regressions.obj
 0002:0002da64       _jwe_sz__catchexception_   00929a64     Regressions.obj
 0002:0002da68       _jwe_ssn__catchexception_  00929a68     Regressions.obj
 0002:0002db38       _jwe_sz__catchminexception_ 00929b38     Regressions.obj
 0002:0002db3c       _jwe_ssn__catchminexception_ 00929b3c     Regressions.obj
 0002:0002dc0c       _jwe_sz__gm_euler_         00929c0c     Regressions.obj
 0002:0002dc10       _jwe_sz__gm_euler@_seuler_ 00929c10     Regressions.obj
 0002:0002dc14       _jwe_ssn__gm_euler@_seuler_ 00929c14     Regressions.obj
 0002:0002dd04       _jwe_sz__f_                00929d04     Regressions.obj
 0002:0002dd08       _jwe_ssn__f_               00929d08     Regressions.obj
 0002:0002dd78       _jwe_sz__ptypefiveexp_     00929d78     Regressions.obj
 0002:0002dd7c       _jwe_ssn__ptypefiveexp_    00929d7c     Regressions.obj
 0002:0002de0c       _jwe_sz__gaussian_         00929e0c     Regressions.obj
 0002:0002de10       _jwe_ssn__gaussian_        00929e10     Regressions.obj
 0002:0002deb0       _jwe_sz__gaussianprime_    00929eb0     Regressions.obj
 0002:0002deb4       _jwe_ssn__gaussianprime_   00929eb4     Regressions.obj
 0002:0002e4d8       _jwe_sz__lms_srpnewrelease_ 0092a4d8     SRPnewRelease.obj
 0002:0002e4dc       _jwe_sz__lms_srpnewrelease@_initialize_ 0092a4dc     SRPnewRelease.obj
 0002:0002e4e0       _jwe_sz__lms_srpnewrelease@_nrelease_ 0092a4e0     SRPnewRelease.obj
 0002:0002e4e4       _jwe_sz__lms_srpnewrelease@_areleaseout_ 0092a4e4     SRPnewRelease.obj
 0002:0002e4e8       _jwe_sz__lms_srpnewrelease@_updatestate_ 0092a4e8     SRPnewRelease.obj
 0002:0002e4ec       _jwe_sz__lms_srpnewrelease@_outputstointerface_ 0092a4ec     SRPnewRelease.obj
 0002:0002e4f0       _jwe_ssn__lms_srpnewrelease@_outputstointerface_ 0092a4f0     SRPnewRelease.obj
 0002:0002e5cc       _jwe_ssn__lms_srpnewrelease@_updatestate_ 0092a5cc     SRPnewRelease.obj
 0002:0002e6c8       _jwe_ssn__lms_srpnewrelease@_areleaseout_ 0092a6c8     SRPnewRelease.obj
 0002:0002e790       _jwe_ssn__lms_srpnewrelease@_nrelease_ 0092a790     SRPnewRelease.obj
 0002:0002e934       _jwe_ssn__lms_srpnewrelease@_initialize_ 0092a934     SRPnewRelease.obj
 0002:0002ea44       _jwe_sz__psrpnewrelease_   0092aa44     SRPnewRelease.obj
 0002:0002ea48       _jwe_ssn__psrpnewrelease_  0092aa48     SRPnewRelease.obj
 0002:0002edd0       _jwe_sz__lms_srpwateroperations_ 0092add0     SRPwaterOperations.obj
 0002:0002edd4       _jwe_sz__lms_srpwateroperations@_classa_ 0092add4     SRPwaterOperations.obj
 0002:0002edd8       _jwe_sz__lms_srpwateroperations@_ncs_ 0092add8     SRPwaterOperations.obj
 0002:0002eddc       _jwe_ssn__lms_srpwateroperations@_ncs_ 0092addc     SRPwaterOperations.obj
 0002:0002f0a8       _jwe_ssn__lms_srpwateroperations@_classa_ 0092b0a8     SRPwaterOperations.obj
 0002:0002f25c       _jwe_sz__psrp_newclassa_   0092b25c     SRPwaterOperations.obj
 0002:0002f260       _jwe_ssn__psrp_newclassa_  0092b260     SRPwaterOperations.obj
 0002:0002f398       _jwe_sz__psrp_newclassbc_  0092b398     SRPwaterOperations.obj
 0002:0002f39c       _jwe_ssn__psrp_newclassbc_ 0092b39c     SRPwaterOperations.obj
 0002:0002f6c4       _jwe_sz__psrp_newncs_      0092b6c4     SRPwaterOperations.obj
 0002:0002f6c8       _jwe_ssn__psrp_newncs_     0092b6c8     SRPwaterOperations.obj
 0002:0002fab0       _jwe_sz__sstrings_         0092bab0     Strings.obj
 0002:0002fab4       _jwe_ssn__sstrings_        0092bab4     Strings.obj
 0002:0002fc58       _jwe_sz__soncethrough_     0092bc58     Strings.obj
 0002:0002fc5c       _jwe_ssn__soncethrough_    0092bc5c     Strings.obj
 0002:0002fd90       _jwe_sz__swrite_           0092bd90     Strings.obj
 0002:0002fd94       _jwe_ssn__swrite_          0092bd94     Strings.obj
 0002:0002fe30       _jwe_sz__ewrite_           0092be30     Strings.obj
 0002:0002fe34       _jwe_ssn__ewrite_          0092be34     Strings.obj
 0002:0002ff38       _jwe_sz__gm_typecontrol_   0092bf38     TypeConstructs.obj
 0002:0002ff40       _jwe_sz__lms_watershed_    0092bf40     WaterShed.obj
 0002:0002ff44       _jwe_sz__lms_watershed@_initgroundwater_ 0092bf44     WaterShed.obj
 0002:0002ff48       _jwe_sz__lms_watershed@_initgw_ 0092bf48     WaterShed.obj
 0002:0002ff4c       _jwe_ssn__lms_watershed@_initgw_ 0092bf4c     WaterShed.obj
 0002:0003004c       _jwe_ssn__lms_watershed@_initgroundwater_ 0092c04c     WaterShed.obj
 0002:0003011c       _jwe_sz__pinitgroundwater_ 0092c11c     WaterShed.obj
 0002:00030120       _jwe_ssn__pinitgroundwater_ 0092c120     WaterShed.obj
 0002:000301e4       _jwe_sz__flows_            0092c1e4     WaterShed.obj
 0002:000301e8       _jwe_ssn__flows_           0092c1e8     WaterShed.obj
 0002:00030264       _jwe_sz__sflowforenvironment_ 0092c264     WaterShed.obj
 0002:00030268       _jwe_ssn__sflowforenvironment_ 0092c268     WaterShed.obj
 0002:000304cc       _jwe_sz__sflowssalttontoverde_ 0092c4cc     WaterShed.obj
 0002:000304d0       _jwe_ssn__sflowssalttontoverde_ 0092c4d0     WaterShed.obj
 0002:0003055c       _jwe_sz__pdesignate_       0092c55c     WaterShed.obj
 0002:00030560       _jwe_ssn__pdesignate_      0092c560     WaterShed.obj
 0002:00030838       _jwe_sz__lm_river_ba_      0092c838     WaterShed_CO.obj
 0002:0003083c       _jwe_sz__lm_river_ba@_initwsb_ 0092c83c     WaterShed_CO.obj
 0002:00030840       _jwe_sz__lm_river_ba@_openfiles_b_ 0092c840     WaterShed_CO.obj
 0002:00030844       _jwe_sz__lm_river_ba@_readfiles_b_ 0092c844     WaterShed_CO.obj
 0002:00030848       _jwe_sz__lm_river_ba@_readparms_b_ 0092c848     WaterShed_CO.obj
 0002:0003084c       _jwe_sz__lm_river_ba@_initialstate_b_ 0092c84c     WaterShed_CO.obj
 0002:00030850       _jwe_ssn__lm_river_ba@_initialstate_b_ 0092c850     WaterShed_CO.obj
 0002:00030960       _jwe_ssn__lm_river_ba@_readparms_b_ 0092c960     WaterShed_CO.obj
 0002:00030ac0       _jwe_ssn__lm_river_ba@_readfiles_b_ 0092cac0     WaterShed_CO.obj
 0002:00030f04       _jwe_ssn__lm_river_ba@_openfiles_b_ 0092cf04     WaterShed_CO.obj
 0002:000310f8       _jwe_ssn__lm_river_ba@_initwsb_ 0092d0f8     WaterShed_CO.obj
 0002:000311d4       _jwe_sz__lms_river_ba_     0092d1d4     WaterShed_CO.obj
 0002:000311d8       _jwe_sz__lms_river_ba@_initial_co_ 0092d1d8     WaterShed_CO.obj
 0002:000311dc       _jwe_sz__lms_river_ba@_aflow_b_ 0092d1dc     WaterShed_CO.obj
 0002:000311e0       _jwe_sz__lms_river_ba@_amodifyflow_ba_ 0092d1e0     WaterShed_CO.obj
 0002:000311e4       _jwe_sz__lms_river_ba@_amodifyflow_bb_ 0092d1e4     WaterShed_CO.obj
 0002:000311e8       _jwe_sz__lms_river_ba@_amodifyflow_bc_ 0092d1e8     WaterShed_CO.obj
 0002:000311ec       _jwe_sz__lms_river_ba@_upperbasinempirical_ 0092d1ec     WaterShed_CO.obj
 0002:000311f0       _jwe_sz__lms_river_ba@_aouttointerface_ 0092d1f0     WaterShed_CO.obj
 0002:000311f4       _jwe_sz__lms_river_ba@_reservoirs_b_ 0092d1f4     WaterShed_CO.obj
 0002:000311f8       _jwe_sz__lms_river_ba@_expectedstorage_ba_ 0092d1f8     WaterShed_CO.obj
 0002:000311fc       _jwe_sz__lms_river_ba@_initialstorage_b_ 0092d1fc     WaterShed_CO.obj
 0002:00031200       _jwe_sz__lms_river_ba@_expectedstorage_bb_ 0092d200     WaterShed_CO.obj
 0002:00031204       _jwe_sz__lms_river_ba@_fbankstoragepowell_ 0092d204     WaterShed_CO.obj
 0002:00031208       _jwe_sz__lms_river_ba@_fbankstoragemead_ 0092d208     WaterShed_CO.obj
 0002:0003120c       _jwe_sz__lms_river_ba@_amodifystorage_ba_ 0092d20c     WaterShed_CO.obj
 0002:00031210       _jwe_sz__lms_river_ba@_actualrelease_ 0092d210     WaterShed_CO.obj
 0002:00031214       _jwe_sz__lms_river_ba@_overriderelease_ 0092d214     WaterShed_CO.obj
 0002:00031218       _jwe_sz__lms_river_ba@_adwrrelease_ 0092d218     WaterShed_CO.obj
 0002:0003121c       _jwe_sz__lms_river_ba@_actualstorage_ 0092d21c     WaterShed_CO.obj
 0002:00031220       _jwe_sz__lms_river_ba@_threshold_b_ 0092d220     WaterShed_CO.obj
 0002:00031224       _jwe_sz__lms_river_ba@_targetamount_ 0092d224     WaterShed_CO.obj
 0002:00031228       _jwe_sz__lms_river_ba@_equalizationtier_ 0092d228     WaterShed_CO.obj
 0002:0003122c       _jwe_sz__lms_river_ba@_upperelevationtier_ 0092d22c     WaterShed_CO.obj
 0002:00031230       _jwe_sz__lms_river_ba@_targetelevations_ 0092d230     WaterShed_CO.obj
 0002:00031234       _jwe_sz__lms_river_ba@_balancecontent_ 0092d234     WaterShed_CO.obj
 0002:00031238       _jwe_sz__lms_river_ba@_elevationspowell_ 0092d238     WaterShed_CO.obj
 0002:0003123c       _jwe_sz__lms_river_ba@_statefromelevationpowell_ 0092d23c     WaterShed_CO.obj
 0002:00031240       _jwe_sz__lms_river_ba@_elevationsmead_ 0092d240     WaterShed_CO.obj
 0002:00031244       _jwe_sz__lms_river_ba@_amodifystorage_bb_ 0092d244     WaterShed_CO.obj
 0002:00031248       _jwe_sz__lms_river_ba@_statesshortageratios_ 0092d248     WaterShed_CO.obj
 0002:0003124c       _jwe_sz__lms_river_ba@_sevenstates_ 0092d24c     WaterShed_CO.obj
 0002:00031250       _jwe_sz__lms_river_ba@_designations_b_ 0092d250     WaterShed_CO.obj
 0002:00031254       _jwe_sz__lms_river_ba@_updatestate_b_ 0092d254     WaterShed_CO.obj
 0002:00031258       _jwe_sz__lms_river_ba@_outinitialb_ 0092d258     WaterShed_CO.obj
 0002:0003125c       _jwe_sz__lms_river_ba@_outputsb_ 0092d25c     WaterShed_CO.obj
 0002:00031260       _jwe_ssn__lms_river_ba@_outputsb_ 0092d260     WaterShed_CO.obj
 0002:00031398       _jwe_ssn__lms_river_ba@_outinitialb_ 0092d398     WaterShed_CO.obj
 0002:0003146c       _jwe_ssn__lms_river_ba@_updatestate_b_ 0092d46c     WaterShed_CO.obj
 0002:00031608       _jwe_ssn__lms_river_ba@_designations_b_ 0092d608     WaterShed_CO.obj
 0002:00031734       _jwe_ssn__lms_river_ba@_sevenstates_ 0092d734     WaterShed_CO.obj
 0002:000319a0       _jwe_ssn__lms_river_ba@_statesshortageratios_ 0092d9a0     WaterShed_CO.obj
 0002:00031af4       _jwe_ssn__lms_river_ba@_amodifystorage_bb_ 0092daf4     WaterShed_CO.obj
 0002:000322ec       _jwe_ssn__lms_river_ba@_elevationsmead_ 0092e2ec     WaterShed_CO.obj
 0002:00032410       _jwe_ssn__lms_river_ba@_statefromelevationpowell_ 0092e410     WaterShed_CO.obj
 0002:000324d0       _jwe_ssn__lms_river_ba@_elevationspowell_ 0092e4d0     WaterShed_CO.obj
 0002:0003261c       _jwe_ssn__lms_river_ba@_balancecontent_ 0092e61c     WaterShed_CO.obj
 0002:0003289c       _jwe_ssn__lms_river_ba@_targetelevations_ 0092e89c     WaterShed_CO.obj
 0002:00032a10       _jwe_ssn__lms_river_ba@_upperelevationtier_ 0092ea10     WaterShed_CO.obj
 0002:00032c18       _jwe_ssn__lms_river_ba@_equalizationtier_ 0092ec18     WaterShed_CO.obj
 0002:00032f9c       _jwe_ssn__lms_river_ba@_targetamount_ 0092ef9c     WaterShed_CO.obj
 0002:00033118       _jwe_ssn__lms_river_ba@_threshold_b_ 0092f118     WaterShed_CO.obj
 0002:00033688       _jwe_ssn__lms_river_ba@_actualstorage_ 0092f688     WaterShed_CO.obj
 0002:00033818       _jwe_ssn__lms_river_ba@_adwrrelease_ 0092f818     WaterShed_CO.obj
 0002:00033b94       _jwe_ssn__lms_river_ba@_overriderelease_ 0092fb94     WaterShed_CO.obj
 0002:00033c7c       _jwe_ssn__lms_river_ba@_actualrelease_ 0092fc7c     WaterShed_CO.obj
 0002:00033d78       _jwe_ssn__lms_river_ba@_amodifystorage_ba_ 0092fd78     WaterShed_CO.obj
 0002:00034054       _jwe_ssn__lms_river_ba@_fbankstoragemead_ 00930054     WaterShed_CO.obj
 0002:00034114       _jwe_ssn__lms_river_ba@_fbankstoragepowell_ 00930114     WaterShed_CO.obj
 0002:000341d4       _jwe_ssn__lms_river_ba@_expectedstorage_bb_ 009301d4     WaterShed_CO.obj
 0002:000342ec       _jwe_ssn__lms_river_ba@_initialstorage_b_ 009302ec     WaterShed_CO.obj
 0002:000343c8       _jwe_ssn__lms_river_ba@_expectedstorage_ba_ 009303c8     WaterShed_CO.obj
 0002:000344e0       _jwe_ssn__lms_river_ba@_reservoirs_b_ 009304e0     WaterShed_CO.obj
 0002:000345f0       _jwe_ssn__lms_river_ba@_aouttointerface_ 009305f0     WaterShed_CO.obj
 0002:000346b8       _jwe_ssn__lms_river_ba@_upperbasinempirical_ 009306b8     WaterShed_CO.obj
 0002:000347b4       _jwe_ssn__lms_river_ba@_amodifyflow_bc_ 009307b4     WaterShed_CO.obj
 0002:000349b4       _jwe_ssn__lms_river_ba@_amodifyflow_bb_ 009309b4     WaterShed_CO.obj
 0002:00034b3c       _jwe_ssn__lms_river_ba@_amodifyflow_ba_ 00930b3c     WaterShed_CO.obj
 0002:00034ec0       _jwe_ssn__lms_river_ba@_aflow_b_ 00930ec0     WaterShed_CO.obj
 0002:000353e0       _jwe_ssn__lms_river_ba@_initial_co_ 009313e0     WaterShed_CO.obj
 0002:00035504       _jwe_sz__initializecolorado_ 00931504     WaterShed_CO.obj
 0002:00035508       _jwe_ssn__initializecolorado_ 00931508     WaterShed_CO.obj
 0002:00035580       _jwe_sz__pflowsreservoirscolorado_ 00931580     WaterShed_CO.obj
 0002:00035584       _jwe_ssn__pflowsreservoirscolorado_ 00931584     WaterShed_CO.obj
 0002:000381a0       _jwe_sz__lm_srpsalttonto_  009341a0     WaterShed_SaltTonto.obj
 0002:000381a4       _jwe_sz__lm_srpsalttonto@_initwssalttonto_ 009341a4     WaterShed_SaltTonto.obj
 0002:000381a8       _jwe_sz__lm_srpsalttonto@_openfiles_st_ 009341a8     WaterShed_SaltTonto.obj
 0002:000381ac       _jwe_sz__lm_srpsalttonto@_readfiles_st_ 009341ac     WaterShed_SaltTonto.obj
 0002:000381b0       _jwe_sz__lm_srpsalttonto@_initialstate_st_ 009341b0     WaterShed_SaltTonto.obj
 0002:000381b4       _jwe_ssn__lm_srpsalttonto@_initialstate_st_ 009341b4     WaterShed_SaltTonto.obj
 0002:0003828c       _jwe_ssn__lm_srpsalttonto@_readfiles_st_ 0093428c     WaterShed_SaltTonto.obj
 0002:000383e8       _jwe_ssn__lm_srpsalttonto@_openfiles_st_ 009343e8     WaterShed_SaltTonto.obj
 0002:000384fc       _jwe_ssn__lm_srpsalttonto@_initwssalttonto_ 009344fc     WaterShed_SaltTonto.obj
 0002:000385cc       _jwe_sz__lms_srpsalttonto_ 009345cc     WaterShed_SaltTonto.obj
 0002:000385d0       _jwe_sz__lms_srpsalttonto@_ainflow_salttonto_ 009345d0     WaterShed_SaltTonto.obj
 0002:000385d4       _jwe_sz__lms_srpsalttonto@_countyears_ 009345d4     WaterShed_SaltTonto.obj
 0002:000385d8       _jwe_sz__lms_srpsalttonto@_monthlyflow_ 009345d8     WaterShed_SaltTonto.obj
 0002:000385dc       _jwe_sz__lms_srpsalttonto@_expectedstoragesalt_ 009345dc     WaterShed_SaltTonto.obj
 0002:000385e0       _jwe_sz__lms_srpsalttonto@_normalflowavailablemonthly_ 009345e0     WaterShed_SaltTonto.obj
 0002:000385e4       _jwe_sz__lms_srpsalttonto@_monthlybc_ 009345e4     WaterShed_SaltTonto.obj
 0002:000385e8       _jwe_sz__lms_srpsalttonto@_storagesaltmonthly_ 009345e8     WaterShed_SaltTonto.obj
 0002:000385ec       _jwe_sz__lms_srpsalttonto@_storagerooseveltmonthly_ 009345ec     WaterShed_SaltTonto.obj
 0002:000385f0       _jwe_sz__lms_srpsalttonto@_initializeloop_ 009345f0     WaterShed_SaltTonto.obj
 0002:000385f4       _jwe_sz__lms_srpsalttonto@_outputstointerface_ 009345f4     WaterShed_SaltTonto.obj
 0002:000385f8       _jwe_sz__lms_srpsalttonto@_validate_ 009345f8     WaterShed_SaltTonto.obj
 0002:000385fc       _jwe_sz__lms_srpsalttonto@_updatestate_ 009345fc     WaterShed_SaltTonto.obj
 0002:00038600       _jwe_sz__lms_srpsalttonto@_movingaveage_ 00934600     WaterShed_SaltTonto.obj
 0002:00038604       _jwe_ssn__lms_srpsalttonto@_movingaveage_ 00934604     WaterShed_SaltTonto.obj
 0002:00038724       _jwe_ssn__lms_srpsalttonto@_updatestate_ 00934724     WaterShed_SaltTonto.obj
 0002:00038824       _jwe_ssn__lms_srpsalttonto@_validate_ 00934824     WaterShed_SaltTonto.obj
 0002:00038910       _jwe_ssn__lms_srpsalttonto@_outputstointerface_ 00934910     WaterShed_SaltTonto.obj
 0002:00038a58       _jwe_ssn__lms_srpsalttonto@_initializeloop_ 00934a58     WaterShed_SaltTonto.obj
 0002:00038b3c       _jwe_ssn__lms_srpsalttonto@_storagerooseveltmonthly_ 00934b3c     WaterShed_SaltTonto.obj
 0002:00038de0       _jwe_ssn__lms_srpsalttonto@_storagesaltmonthly_ 00934de0     WaterShed_SaltTonto.obj
 0002:000393c4       _jwe_ssn__lms_srpsalttonto@_monthlybc_ 009353c4     WaterShed_SaltTonto.obj
 0002:000394b0       _jwe_ssn__lms_srpsalttonto@_normalflowavailablemonthly_ 009354b0     WaterShed_SaltTonto.obj
 0002:00039670       _jwe_ssn__lms_srpsalttonto@_expectedstoragesalt_ 00935670     WaterShed_SaltTonto.obj
 0002:000397f4       _jwe_ssn__lms_srpsalttonto@_monthlyflow_ 009357f4     WaterShed_SaltTonto.obj
 0002:00039908       _jwe_ssn__lms_srpsalttonto@_countyears_ 00935908     WaterShed_SaltTonto.obj
 0002:00039a64       _jwe_ssn__lms_srpsalttonto@_ainflow_salttonto_ 00935a64     WaterShed_SaltTonto.obj
 0002:00039d80       _jwe_sz__initializesalttonto_ 00935d80     WaterShed_SaltTonto.obj
 0002:00039d84       _jwe_ssn__initializesalttonto_ 00935d84     WaterShed_SaltTonto.obj
 0002:00039e04       _jwe_sz__adjustedflowsalttonto_ 00935e04     WaterShed_SaltTonto.obj
 0002:00039e08       _jwe_ssn__adjustedflowsalttonto_ 00935e08     WaterShed_SaltTonto.obj
 0002:00039e88       _jwe_sz__normalflowsalttonto_ 00935e88     WaterShed_SaltTonto.obj
 0002:00039e8c       _jwe_ssn__normalflowsalttonto_ 00935e8c     WaterShed_SaltTonto.obj
 0002:0003b550       _jwe_sz__lm_river_aa_      00937550     WaterShed_STV.obj
 0002:0003b554       _jwe_sz__lm_river_aa@_initwsa_ 00937554     WaterShed_STV.obj
 0002:0003b558       _jwe_sz__lm_river_aa@_openfiles_a_ 00937558     WaterShed_STV.obj
 0002:0003b55c       _jwe_sz__lm_river_aa@_readfiles_a_ 0093755c     WaterShed_STV.obj
 0002:0003b560       _jwe_sz__lm_river_aa@_readparms_a_ 00937560     WaterShed_STV.obj
 0002:0003b564       _jwe_sz__lm_river_aa@_initialstate_a_ 00937564     WaterShed_STV.obj
 0002:0003b568       _jwe_ssn__lm_river_aa@_initialstate_a_ 00937568     WaterShed_STV.obj
 0002:0003b6a0       _jwe_ssn__lm_river_aa@_readparms_a_ 009376a0     WaterShed_STV.obj
 0002:0003b844       _jwe_ssn__lm_river_aa@_readfiles_a_ 00937844     WaterShed_STV.obj
 0002:0003b9e0       _jwe_ssn__lm_river_aa@_openfiles_a_ 009379e0     WaterShed_STV.obj
 0002:0003bb54       _jwe_ssn__lm_river_aa@_initwsa_ 00937b54     WaterShed_STV.obj
 0002:0003bc30       _jwe_sz__lms_river_aa_     00937c30     WaterShed_STV.obj
 0002:0003bc34       _jwe_sz__lms_river_aa@_outinitiala_ 00937c34     WaterShed_STV.obj
 0002:0003bc38       _jwe_sz__lms_river_aa@_sunintendedrecharge_ 00937c38     WaterShed_STV.obj
 0002:0003bc3c       _jwe_ssn__lms_river_aa@_sunintendedrecharge_ 00937c3c     WaterShed_STV.obj
 0002:0003bda4       _jwe_ssn__lms_river_aa@_outinitiala_ 00937da4     WaterShed_STV.obj
 0002:0003be58       _jwe_sz__initializesalttontoverde_ 00937e58     WaterShed_STV.obj
 0002:0003be5c       _jwe_ssn__initializesalttontoverde_ 00937e5c     WaterShed_STV.obj
 0002:0003bed4       _jwe_sz__psalttontoverde_  00937ed4     WaterShed_STV.obj
 0002:0003bed8       _jwe_ssn__psalttontoverde_ 00937ed8     WaterShed_STV.obj
 0002:0003c320       _jwe_sz__lm_srpverde_      00938320     WaterShed_Verde.obj
 0002:0003c324       _jwe_sz__lm_srpverde@_initwsverde_ 00938324     WaterShed_Verde.obj
 0002:0003c328       _jwe_sz__lm_srpverde@_openfiles_v_ 00938328     WaterShed_Verde.obj
 0002:0003c32c       _jwe_sz__lm_srpverde@_readfiles_v_ 0093832c     WaterShed_Verde.obj
 0002:0003c330       _jwe_sz__lm_srpverde@_initialstate_v_ 00938330     WaterShed_Verde.obj
 0002:0003c334       _jwe_ssn__lm_srpverde@_initialstate_v_ 00938334     WaterShed_Verde.obj
 0002:0003c3f4       _jwe_ssn__lm_srpverde@_readfiles_v_ 009383f4     WaterShed_Verde.obj
 0002:0003c554       _jwe_ssn__lm_srpverde@_openfiles_v_ 00938554     WaterShed_Verde.obj
 0002:0003c63c       _jwe_ssn__lm_srpverde@_initwsverde_ 0093863c     WaterShed_Verde.obj
 0002:0003c708       _jwe_sz__lms_srpverde_     00938708     WaterShed_Verde.obj
 0002:0003c70c       _jwe_sz__lms_srpverde@_ainflow_verde_ 0093870c     WaterShed_Verde.obj
 0002:0003c710       _jwe_sz__lms_srpverde@_countyears_ 00938710     WaterShed_Verde.obj
 0002:0003c714       _jwe_sz__lms_srpverde@_monthlyflow_ 00938714     WaterShed_Verde.obj
 0002:0003c718       _jwe_sz__lms_srpverde@_expectedstorageverde_ 00938718     WaterShed_Verde.obj
 0002:0003c71c       _jwe_sz__lms_srpverde@_normalflowavailablemonthly_ 0093871c     WaterShed_Verde.obj
 0002:0003c720       _jwe_sz__lms_srpverde@_monthlybc_ 00938720     WaterShed_Verde.obj
 0002:0003c724       _jwe_sz__lms_srpverde@_storageverdemonthly_ 00938724     WaterShed_Verde.obj
 0002:0003c728       _jwe_sz__lms_srpverde@_initializeloop_ 00938728     WaterShed_Verde.obj
 0002:0003c72c       _jwe_sz__lms_srpverde@_transferout_ 0093872c     WaterShed_Verde.obj
 0002:0003c730       _jwe_sz__lms_srpverde@_outputstointerface_ 00938730     WaterShed_Verde.obj
 0002:0003c734       _jwe_sz__lms_srpverde@_validate_ 00938734     WaterShed_Verde.obj
 0002:0003c738       _jwe_sz__lms_srpverde@_updatestate_ 00938738     WaterShed_Verde.obj
 0002:0003c73c       _jwe_ssn__lms_srpverde@_updatestate_ 0093873c     WaterShed_Verde.obj
 0002:0003c7fc       _jwe_ssn__lms_srpverde@_validate_ 009387fc     WaterShed_Verde.obj
 0002:0003c940       _jwe_ssn__lms_srpverde@_outputstointerface_ 00938940     WaterShed_Verde.obj
 0002:0003ca5c       _jwe_ssn__lms_srpverde@_transferout_ 00938a5c     WaterShed_Verde.obj
 0002:0003cb28       _jwe_ssn__lms_srpverde@_initializeloop_ 00938b28     WaterShed_Verde.obj
 0002:0003cc30       _jwe_ssn__lms_srpverde@_storageverdemonthly_ 00938c30     WaterShed_Verde.obj
 0002:0003cf84       _jwe_ssn__lms_srpverde@_monthlybc_ 00938f84     WaterShed_Verde.obj
 0002:0003d1a4       _jwe_ssn__lms_srpverde@_normalflowavailablemonthly_ 009391a4     WaterShed_Verde.obj
 0002:0003d304       _jwe_ssn__lms_srpverde@_expectedstorageverde_ 00939304     WaterShed_Verde.obj
 0002:0003d450       _jwe_ssn__lms_srpverde@_monthlyflow_ 00939450     WaterShed_Verde.obj
 0002:0003d560       _jwe_ssn__lms_srpverde@_countyears_ 00939560     WaterShed_Verde.obj
 0002:0003d6b8       _jwe_ssn__lms_srpverde@_ainflow_verde_ 009396b8     WaterShed_Verde.obj
 0002:0003d9b4       _jwe_sz__initializeverde_  009399b4     WaterShed_Verde.obj
 0002:0003d9b8       _jwe_ssn__initializeverde_ 009399b8     WaterShed_Verde.obj
 0002:0003da34       _jwe_sz__adjustedflowverde_ 00939a34     WaterShed_Verde.obj
 0002:0003da38       _jwe_ssn__adjustedflowverde_ 00939a38     WaterShed_Verde.obj
 0002:0003dab4       _jwe_sz__normalflowverde_  00939ab4     WaterShed_Verde.obj
 0002:0003dab8       _jwe_ssn__normalflowverde_ 00939ab8     WaterShed_Verde.obj
 0002:0003dc14       _jwe_sz__monthlydemand_    00939c14     WaterShed_Verde.obj
 0002:0003dc18       _jwe_ssn__monthlydemand_   00939c18     WaterShed_Verde.obj
 0002:0003dd24       _jwe_sz__checkclassaflowavailable_ 00939d24     WaterShed_Verde.obj
 0002:0003dd28       _jwe_ssn__checkclassaflowavailable_ 00939d28     WaterShed_Verde.obj
 0002:0003f228       _jwe_sz__lm_citiwaterbudgets_ 0093b228     Water_CityModel.obj
 0002:0003f22c       _jwe_sz__lm_citiwaterbudgets@_initcitymodel_ 0093b22c     Water_CityModel.obj
 0002:0003f230       _jwe_sz__lm_citiwaterbudgets@_openfiles_cm_ 0093b230     Water_CityModel.obj
 0002:0003f234       _jwe_sz__lm_citiwaterbudgets@_readfiles_cm_ 0093b234     Water_CityModel.obj
 0002:0003f238       _jwe_ssn__lm_citiwaterbudgets@_readfiles_cm_ 0093b238     Water_CityModel.obj
 0002:0003f3e0       _jwe_ssn__lm_citiwaterbudgets@_openfiles_cm_ 0093b3e0     Water_CityModel.obj
 0002:0003f554       _jwe_ssn__lm_citiwaterbudgets@_initcitymodel_ 0093b554     Water_CityModel.obj
 0002:0003f620       _jwe_sz__lms_citiwaterbudgets_ 0093b620     Water_CityModel.obj
 0002:0003f624       _jwe_sz__lms_citiwaterbudgets@_saquifer_ 0093b624     Water_CityModel.obj
 0002:0003f628       _jwe_sz__lms_citiwaterbudgets@_scommercial_ 0093b628     Water_CityModel.obj
 0002:0003f62c       _jwe_sz__lms_citiwaterbudgets@_sshowerminutes_ 0093b62c     Water_CityModel.obj
 0002:0003f630       _jwe_sz__lms_citiwaterbudgets@_sindustrial_ 0093b630     Water_CityModel.obj
 0002:0003f634       _jwe_sz__lms_citiwaterbudgets@_sdirectinjection_ 0093b634     Water_CityModel.obj
 0002:0003f638       _jwe_sz__lms_citiwaterbudgets@_seffluent_ 0093b638     Water_CityModel.obj
 0002:0003f63c       _jwe_sz__lms_citiwaterbudgets@_sgwtreatment_ 0093b63c     Water_CityModel.obj
 0002:0003f640       _jwe_sz__lms_citiwaterbudgets@_sindustrialreuse_ 0093b640     Water_CityModel.obj
 0002:0003f644       _jwe_sz__lms_citiwaterbudgets@_sreclaimed_ 0093b644     Water_CityModel.obj
 0002:0003f648       _jwe_sz__lms_citiwaterbudgets@_sresidential_ 0093b648     Water_CityModel.obj
 0002:0003f64c       _jwe_sz__lms_citiwaterbudgets@_sroprocess_ 0093b64c     Water_CityModel.obj
 0002:0003f650       _jwe_sz__lms_citiwaterbudgets@_srwwtp_ 0093b650     Water_CityModel.obj
 0002:0003f654       _jwe_sz__lms_citiwaterbudgets@_ssurfacewater_ 0093b654     Water_CityModel.obj
 0002:0003f658       _jwe_sz__lms_citiwaterbudgets@_sswtp_ 0093b658     Water_CityModel.obj
 0002:0003f65c       _jwe_sz__lms_citiwaterbudgets@_svadose_ 0093b65c     Water_CityModel.obj
 0002:0003f660       _jwe_sz__lms_citiwaterbudgets@_slagvadose_ 0093b660     Water_CityModel.obj
 0002:0003f664       _jwe_sz__lms_citiwaterbudgets@_storelaggedvadose_ 0093b664     Water_CityModel.obj
 0002:0003f668       _jwe_sz__lms_citiwaterbudgets@_fvadoseinfiltration_ 0093b668     Water_CityModel.obj
 0002:0003f66c       _jwe_sz__lms_citiwaterbudgets@_fvadoseloss_ 0093b66c     Water_CityModel.obj
 0002:0003f670       _jwe_sz__lms_citiwaterbudgets@_swsupply_ 0093b670     Water_CityModel.obj
 0002:0003f674       _jwe_sz__lms_citiwaterbudgets@_swwtp_ 0093b674     Water_CityModel.obj
 0002:0003f678       _jwe_sz__lms_citiwaterbudgets@_sagriculture_ 0093b678     Water_CityModel.obj
 0002:0003f67c       _jwe_sz__lms_citiwaterbudgets@_spowerplant_ 0093b67c     Water_CityModel.obj
 0002:0003f680       _jwe_sz__lms_citiwaterbudgets@_sbalancews_ 0093b680     Water_CityModel.obj
 0002:0003f684       _jwe_sz__lms_citiwaterbudgets@_sproportionnew_ 0093b684     Water_CityModel.obj
 0002:0003f688       _jwe_sz__lms_citiwaterbudgets@_sproportion_ 0093b688     Water_CityModel.obj
 0002:0003f68c       _jwe_sz__lms_citiwaterbudgets@_srangecheck_ 0093b68c     Water_CityModel.obj
 0002:0003f690       _jwe_sz__lms_citiwaterbudgets@_swaterfluxtoatmos_ 0093b690     Water_CityModel.obj
 0002:0003f694       _jwe_sz__lms_citiwaterbudgets@_supdatestate_ 0093b694     Water_CityModel.obj
 0002:0003f698       _jwe_sz__lms_citiwaterbudgets@_sstepupdate_ 0093b698     Water_CityModel.obj
 0002:0003f69c       _jwe_sz__lms_citiwaterbudgets@_sgraywater_ 0093b69c     Water_CityModel.obj
 0002:0003f6a0       _jwe_sz__lms_citiwaterbudgets@_sblackwater_ 0093b6a0     Water_CityModel.obj
 0002:0003f6a4       _jwe_sz__lms_citiwaterbudgets@_srunoff_ 0093b6a4     Water_CityModel.obj
 0002:0003f6a8       _jwe_sz__lms_citiwaterbudgets@_fpercolation_ 0093b6a8     Water_CityModel.obj
 0002:0003f6ac       _jwe_sz__lms_citiwaterbudgets@_fstormwaterstorage_ 0093b6ac     Water_CityModel.obj
 0002:0003f6b0       _jwe_sz__lms_citiwaterbudgets@_speakrainfall_ 0093b6b0     Water_CityModel.obj
 0002:0003f6b4       _jwe_sz__lms_citiwaterbudgets@_srainfallrunoff_ 0093b6b4     Water_CityModel.obj
 0002:0003f6b8       _jwe_sz__lms_citiwaterbudgets@_sconverge_ 0093b6b8     Water_CityModel.obj
 0002:0003f6bc       _jwe_sz__lms_citiwaterbudgets@_svadosecurve_ 0093b6bc     Water_CityModel.obj
 0002:0003f6c0       _jwe_sz__lms_citiwaterbudgets@_typetransferin_ 0093b6c0     Water_CityModel.obj
 0002:0003f6c4       _jwe_sz__lms_citiwaterbudgets@_typetransferout_ 0093b6c4     Water_CityModel.obj
 0002:0003f6c8       _jwe_sz__lms_citiwaterbudgets@_soutputtointerface_ 0093b6c8     Water_CityModel.obj
 0002:0003f6cc       _jwe_sz__lms_citiwaterbudgets@_scitymodelwater_ 0093b6cc     Water_CityModel.obj
 0002:0003f6d0       _jwe_sz__lms_citiwaterbudgets@_loopend_ 0093b6d0     Water_CityModel.obj
 0002:0003f6d4       _jwe_sz__lms_citiwaterbudgets@_screditbalance_ 0093b6d4     Water_CityModel.obj
 0002:0003f6d8       _jwe_sz__lms_citiwaterbudgets@_outputs_ 0093b6d8     Water_CityModel.obj
 0002:0003f6dc       _jwe_ssn__lms_citiwaterbudgets@_outputs_ 0093b6dc     Water_CityModel.obj
 0002:0003f7c4       _jwe_ssn__lms_citiwaterbudgets@_screditbalance_ 0093b7c4     Water_CityModel.obj
 0002:0003f910       _jwe_ssn__lms_citiwaterbudgets@_loopend_ 0093b910     Water_CityModel.obj
 0002:0003f9d0       _jwe_ssn__lms_citiwaterbudgets@_scitymodelwater_ 0093b9d0     Water_CityModel.obj
 0002:0003fb78       _jwe_ssn__lms_citiwaterbudgets@_soutputtointerface_ 0093bb78     Water_CityModel.obj
 0002:0003fe54       _jwe_ssn__lms_citiwaterbudgets@_typetransferout_ 0093be54     Water_CityModel.obj
 0002:0003ffe8       _jwe_ssn__lms_citiwaterbudgets@_typetransferin_ 0093bfe8     Water_CityModel.obj
 0002:000402d8       _jwe_ssn__lms_citiwaterbudgets@_svadosecurve_ 0093c2d8     Water_CityModel.obj
 0002:000403ac       _jwe_ssn__lms_citiwaterbudgets@_sconverge_ 0093c3ac     Water_CityModel.obj
 0002:00040464       _jwe_ssn__lms_citiwaterbudgets@_srainfallrunoff_ 0093c464     Water_CityModel.obj
 0002:000407c4       _jwe_ssn__lms_citiwaterbudgets@_speakrainfall_ 0093c7c4     Water_CityModel.obj
 0002:00040898       _jwe_ssn__lms_citiwaterbudgets@_fstormwaterstorage_ 0093c898     Water_CityModel.obj
 0002:00040a20       _jwe_ssn__lms_citiwaterbudgets@_fpercolation_ 0093ca20     Water_CityModel.obj
 0002:00040ae0       _jwe_ssn__lms_citiwaterbudgets@_srunoff_ 0093cae0     Water_CityModel.obj
 0002:00040be8       _jwe_ssn__lms_citiwaterbudgets@_sblackwater_ 0093cbe8     Water_CityModel.obj
 0002:00040e24       _jwe_ssn__lms_citiwaterbudgets@_sgraywater_ 0093ce24     Water_CityModel.obj
 0002:00040fe0       _jwe_ssn__lms_citiwaterbudgets@_sstepupdate_ 0093cfe0     Water_CityModel.obj
 0002:00041110       _jwe_ssn__lms_citiwaterbudgets@_supdatestate_ 0093d110     Water_CityModel.obj
 0002:00041234       _jwe_ssn__lms_citiwaterbudgets@_swaterfluxtoatmos_ 0093d234     Water_CityModel.obj
 0002:0004131c       _jwe_ssn__lms_citiwaterbudgets@_srangecheck_ 0093d31c     Water_CityModel.obj
 0002:00041410       _jwe_ssn__lms_citiwaterbudgets@_sproportion_ 0093d410     Water_CityModel.obj
 0002:00041798       _jwe_ssn__lms_citiwaterbudgets@_sproportionnew_ 0093d798     Water_CityModel.obj
 0002:00041a08       _jwe_ssn__lms_citiwaterbudgets@_sbalancews_ 0093da08     Water_CityModel.obj
 0002:00041c00       _jwe_ssn__lms_citiwaterbudgets@_spowerplant_ 0093dc00     Water_CityModel.obj
 0002:00041ce8       _jwe_ssn__lms_citiwaterbudgets@_sagriculture_ 0093dce8     Water_CityModel.obj
 0002:00041e7c       _jwe_ssn__lms_citiwaterbudgets@_swwtp_ 0093de7c     Water_CityModel.obj
 0002:0004202c       _jwe_ssn__lms_citiwaterbudgets@_swsupply_ 0093e02c     Water_CityModel.obj
 0002:000422e0       _jwe_ssn__lms_citiwaterbudgets@_fvadoseloss_ 0093e2e0     Water_CityModel.obj
 0002:000423ac       _jwe_ssn__lms_citiwaterbudgets@_fvadoseinfiltration_ 0093e3ac     Water_CityModel.obj
 0002:00042478       _jwe_ssn__lms_citiwaterbudgets@_storelaggedvadose_ 0093e478     Water_CityModel.obj
 0002:00042560       _jwe_ssn__lms_citiwaterbudgets@_slagvadose_ 0093e560     Water_CityModel.obj
 0002:000426c0       _jwe_ssn__lms_citiwaterbudgets@_svadose_ 0093e6c0     Water_CityModel.obj
 0002:00042a84       _jwe_ssn__lms_citiwaterbudgets@_sswtp_ 0093ea84     Water_CityModel.obj
 0002:00042b6c       _jwe_ssn__lms_citiwaterbudgets@_ssurfacewater_ 0093eb6c     Water_CityModel.obj
 0002:00042d50       _jwe_ssn__lms_citiwaterbudgets@_srwwtp_ 0093ed50     Water_CityModel.obj
 0002:00042e9c       _jwe_ssn__lms_citiwaterbudgets@_sroprocess_ 0093ee9c     Water_CityModel.obj
 0002:0004301c       _jwe_ssn__lms_citiwaterbudgets@_sresidential_ 0093f01c     Water_CityModel.obj
 0002:000434ec       _jwe_ssn__lms_citiwaterbudgets@_sreclaimed_ 0093f4ec     Water_CityModel.obj
 0002:000436c4       _jwe_ssn__lms_citiwaterbudgets@_sindustrialreuse_ 0093f6c4     Water_CityModel.obj
 0002:000437f4       _jwe_ssn__lms_citiwaterbudgets@_sgwtreatment_ 0093f7f4     Water_CityModel.obj
 0002:000438fc       _jwe_ssn__lms_citiwaterbudgets@_seffluent_ 0093f8fc     Water_CityModel.obj
 0002:00043bbc       _jwe_ssn__lms_citiwaterbudgets@_sdirectinjection_ 0093fbbc     Water_CityModel.obj
 0002:00043c9c       _jwe_ssn__lms_citiwaterbudgets@_sindustrial_ 0093fc9c     Water_CityModel.obj
 0002:00044108       _jwe_ssn__lms_citiwaterbudgets@_sshowerminutes_ 00940108     Water_CityModel.obj
 0002:000441d4       _jwe_ssn__lms_citiwaterbudgets@_scommercial_ 009401d4     Water_CityModel.obj
 0002:0004462c       _jwe_ssn__lms_citiwaterbudgets@_saquifer_ 0094062c     Water_CityModel.obj
 0002:00044a48       _jwe_sz__initializecitymodel_ 00940a48     Water_CityModel.obj
 0002:00044a4c       _jwe_ssn__initializecitymodel_ 00940a4c     Water_CityModel.obj
 0002:00044ac0       _jwe_sz__pcitimodel_       00940ac0     Water_CityModel.obj
 0002:00044ac4       _jwe_ssn__pcitimodel_      00940ac4     Water_CityModel.obj
 0002:00044c68       _jwe_sz__frainevaporationrate_ 00940c68     Water_CityModel.obj
 0002:00044c6c       _jwe_ssn__frainevaporationrate_ 00940c6c     Water_CityModel.obj
 0002:00044ce0       _jwe_sz__MODULE@lms_citiwaterbudgets_ 00940ce0     Water_CityModel.obj
 0002:0004b624       __real@3f000000            00947624     fj90f:jwe_fani.obj
 0002:0004b890       __real@0000000000000000    00947890     fj90f:jwe_fdin.obj
 0002:0004be38       __real@7f7fffee            00947e38     fj90g:jwe_grxr.obj
 0002:0004be40       __real@4000000000000000    00947e40     fj90g:jwe_grxr.obj
 0002:0004be48       __real@3f800000            00947e48     fj90g:jwe_grxr.obj
 0002:0004be4c       __real@00000000            00947e4c     fj90g:jwe_grxr.obj
 0002:0004be50       __real@4060000000000000    00947e50     fj90g:jwe_grxr.obj
 0002:0004be58       __real@c05fc00000000000    00947e58     fj90g:jwe_grxr.obj
 0002:0004be60       __real@3ff0000000000000    00947e60     fj90g:jwe_grxr.obj
 0002:0004e420       __real@7fefffffffffffb6    0094a420     fj90g:jwe_gdxd.obj
 0002:0004e428       __real@3fe0000000000000    0094a428     fj90g:jwe_gdxd.obj
 0002:0004e590       __real@40862e4189374bc7    0094a590     fj90g:jwe_gdex.obj
 0002:0004e598       __real@c08628b645a1cac1    0094a598     fj90g:jwe_gdex.obj
 0002:0004e618       __real@3fb999999999999a    0094a618     fj90i:jwe_ildo.obj
 0002:0004e620       __real@3fb2492492492492    0094a620     fj90i:jwe_irio.obj
 0002:0004e628       __real@4024000000000000    0094a628     fj90i:jwe_irio.obj
 0002:0004e630       __real@3e112e0be826d695    0094a630     fj90i:jwe_irio.obj
 0002:0004e638       __real@bfb2492492492492    0094a638     fj90i:jwe_irio.obj
 0002:0004e640       __real@416312d000000000    0094a640     fj90i:jwe_irio.obj
 0002:0004e648       __real@4180000000000000    0094a648     fj90i:jwe_irio.obj
 0002:0004e650       __real@bfb999999999999a    0094a650     fj90i:jwe_irio.obj
 0002:0004e6bc       ??_C@_03MNBA@?4?1?2?$AA@   0094a6bc     libc:stati64.obj
 0002:0004e6c0       ??_C@_02DIIM@?$DP?$CK?$AA@ 0094a6c0     libc:stati64.obj
 0002:0004e6c4       ??_C@_0BH@PHHF@__GLOBAL_HEAP_SELECTED?$AA@ 0094a6c4     libc:heapinit.obj
 0002:0004e6dc       ??_C@_0BF@BBGL@__MSVCRT_HEAP_SELECT?$AA@ 0094a6dc     libc:heapinit.obj
 0002:0004e6f4       ??_C@_0P@GGKG@runtime?5error?5?$AA@ 0094a6f4     libc:crt0msg.obj
 0002:0004e704       ??_C@_02PIMC@?$AN?6?$AA@   0094a704     libc:crt0msg.obj
 0002:0004e708       ??_C@_0O@DELO@TLOSS?5error?$AN?6?$AA@ 0094a708     libc:crt0msg.obj
 0002:0004e718       ??_C@_0N@OMLL@SING?5error?$AN?6?$AA@ 0094a718     libc:crt0msg.obj
 0002:0004e728       ??_C@_0P@OJAK@DOMAIN?5error?$AN?6?$AA@ 0094a728     libc:crt0msg.obj
 0002:0004e738       ??_C@_0CF@EANP@R6028?$AN?6?9?5unable?5to?5initialize?5he@ 0094a738     libc:crt0msg.obj
 0002:0004e760       ??_C@_0DF@ECGN@R6027?$AN?6?9?5not?5enough?5space?5for?5lo@ 0094a760     libc:crt0msg.obj
 0002:0004e798       ??_C@_0DF@FKAC@R6026?$AN?6?9?5not?5enough?5space?5for?5st@ 0094a798     libc:crt0msg.obj
 0002:0004e7d0       ??_C@_0CG@DPMN@R6025?$AN?6?9?5pure?5virtual?5function?5c@ 0094a7d0     libc:crt0msg.obj
 0002:0004e7f8       ??_C@_0DF@CKIP@R6024?$AN?6?9?5not?5enough?5space?5for?5_o@ 0094a7f8     libc:crt0msg.obj
 0002:0004e830       ??_C@_0CJ@GGOE@R6019?$AN?6?9?5unable?5to?5open?5console?5@ 0094a830     libc:crt0msg.obj
 0002:0004e85c       ??_C@_0CB@LBOB@R6018?$AN?6?9?5unexpected?5heap?5error?$AN?6@ 0094a85c     libc:crt0msg.obj
 0002:0004e880       ??_C@_0CN@FPEG@R6017?$AN?6?9?5unexpected?5multithread?5@ 0094a880     libc:crt0msg.obj
 0002:0004e8b0       ??_C@_0CM@OBIC@R6016?$AN?6?9?5not?5enough?5space?5for?5th@ 0094a8b0     libc:crt0msg.obj
 0002:0004e8dc       ??_C@_0CB@HPAL@?$AN?6abnormal?5program?5termination?$AN?6@ 0094a8dc     libc:crt0msg.obj
 0002:0004e900       ??_C@_0CM@JOOB@R6009?$AN?6?9?5not?5enough?5space?5for?5en@ 0094a900     libc:crt0msg.obj
 0002:0004e92c       ??_C@_0CK@OIBL@R6008?$AN?6?9?5not?5enough?5space?5for?5ar@ 0094a92c     libc:crt0msg.obj
 0002:0004e958       ??_C@_0CF@LKPB@R6002?$AN?6?9?5floating?5point?5not?5load@ 0094a958     libc:crt0msg.obj
 0002:0004e980       ??_C@_0CF@JPDF@Microsoft?5Visual?5C?$CL?$CL?5Runtime?5Lib@ 0094a980     libc:crt0msg.obj
 0002:0004e9a8       ??_C@_02JJJH@?6?6?$AA@     0094a9a8     libc:crt0msg.obj
 0002:0004e9ac       ??_C@_0BK@DEOK@Runtime?5Error?$CB?6?6Program?3?5?$AA@ 0094a9ac     libc:crt0msg.obj
 0002:0004e9c8       ??_C@_03NAME@?4?4?4?$AA@   0094a9c8     libc:crt0msg.obj
 0002:0004e9cc       ??_C@_0BH@NNCD@?$DMprogram?5name?5unknown?$DO?$AA@ 0094a9cc     libc:crt0msg.obj
 0002:0004e9e8       __real@8@3fff8000000000000000 0094a9e8     libc:testfdiv.obj
 0002:0004e9f0       __real@8@4015800bf60000000000 0094a9f0     libc:testfdiv.obj
 0002:0004e9f8       __real@8@4014bffffc0000000000 0094a9f8     libc:testfdiv.obj
 0002:0004ea00       ??_C@_0BK@JEGK@IsProcessorFeaturePresent?$AA@ 0094aa00     libc:testfdiv.obj
 0002:0004ea1c       ??_C@_08OBID@KERNEL32?$AA@ 0094aa1c     libc:testfdiv.obj
 0002:0004ea28       __real@8@00000000000000000000 0094aa28     libc:cvt.obj
 0002:0004ea30       ??_C@_05OFLO@e?$CL000?$AA@ 0094aa30     libc:cvt.obj
 0002:0004ea38       ??_C@_04GGNP@?4com?$AA@    0094aa38     libc:stat.obj
 0002:0004ea40       ??_C@_04KBDN@?4bat?$AA@    0094aa40     libc:stat.obj
 0002:0004ea48       ??_C@_04LFKF@?4cmd?$AA@    0094aa48     libc:stat.obj
 0002:0004ea50       ??_C@_04NFOM@?4exe?$AA@    0094aa50     libc:stat.obj
 0002:0004ea58       ___lookuptable             0094aa58     libc:output.obj
 0002:0004eab4       ??_C@_1O@POHA@?$AA?$CI?$AAn?$AAu?$AAl?$AAl?$AA?$CJ?$AA?$AA@ 0094aab4     libc:output.obj
 0002:0004eac4       ??_C@_06ONKE@?$CInull?$CJ?$AA@ 0094aac4     libc:output.obj
 0002:0004eacc       ??_C@_01A@?$AA?$AA@        0094aacc     libc:a_str.obj
 0002:0004ead0       ??_C@_13A@?$AA?$AA?$AA?$AA@ 0094aad0     libc:a_str.obj
 0002:0004eaf8       __DEFAULT_CW_in_mem        0094aaf8     libc:common.obj
 0002:0004eafa       __pi_by_2_to_61            0094aafa     libc:common.obj
 0002:0004eb38       __real@8@40008000000000000000 0094ab38     libc:powhlp.obj
 0002:0004eb58       ??_C@_0BG@JPLP@Illegal?5byte?5sequence?$AA@ 0094ab58     libc:syserr.obj
 0002:0004eb70       ??_C@_0BE@FLBN@Directory?5not?5empty?$AA@ 0094ab70     libc:syserr.obj
 0002:0004eb84       ??_C@_0BJ@KAFL@Function?5not?5implemented?$AA@ 0094ab84     libc:syserr.obj
 0002:0004eba0       ??_C@_0BD@CEML@No?5locks?5available?$AA@ 0094aba0     libc:syserr.obj
 0002:0004ebb4       ??_C@_0BC@GADJ@Filename?5too?5long?$AA@ 0094abb4     libc:syserr.obj
 0002:0004ebc8       ??_C@_0BK@FNFN@Resource?5deadlock?5avoided?$AA@ 0094abc8     libc:syserr.obj
 0002:0004ebe4       ??_C@_0BB@EALI@Result?5too?5large?$AA@ 0094abe4     libc:syserr.obj
 0002:0004ebf8       ??_C@_0N@FIAN@Domain?5error?$AA@ 0094abf8     libc:syserr.obj
 0002:0004ec08       ??_C@_0M@CLKF@Broken?5pipe?$AA@ 0094ac08     libc:syserr.obj
 0002:0004ec14       ??_C@_0P@OFDM@Too?5many?5links?$AA@ 0094ac14     libc:syserr.obj
 0002:0004ec24       ??_C@_0BG@OHDM@Read?9only?5file?5system?$AA@ 0094ac24     libc:syserr.obj
 0002:0004ec3c       ??_C@_0N@NGPA@Invalid?5seek?$AA@ 0094ac3c     libc:syserr.obj
 0002:0004ec4c       ??_C@_0BI@DMFE@No?5space?5left?5on?5device?$AA@ 0094ac4c     libc:syserr.obj
 0002:0004ec64       ??_C@_0P@OPNK@File?5too?5large?$AA@ 0094ac64     libc:syserr.obj
 0002:0004ec74       ??_C@_0CE@BADJ@Inappropriate?5I?1O?5control?5operat@ 0094ac74     libc:syserr.obj
 0002:0004ec98       ??_C@_0BE@COOK@Too?5many?5open?5files?$AA@ 0094ac98     libc:syserr.obj
 0002:0004ecac       ??_C@_0BO@ELHF@Too?5many?5open?5files?5in?5system?$AA@ 0094acac     libc:syserr.obj
 0002:0004eccc       ??_C@_0BB@IHAB@Invalid?5argument?$AA@ 0094accc     libc:syserr.obj
 0002:0004ece0       ??_C@_0P@NDNC@Is?5a?5directory?$AA@ 0094ace0     libc:syserr.obj
 0002:0004ecf0       ??_C@_0BA@JMMO@Not?5a?5directory?$AA@ 0094acf0     libc:syserr.obj
 0002:0004ed00       ??_C@_0P@GFAI@No?5such?5device?$AA@ 0094ad00     libc:syserr.obj
 0002:0004ed10       ??_C@_0O@KHHM@Improper?5link?$AA@ 0094ad10     libc:syserr.obj
 0002:0004ed20       ??_C@_0M@EPHJ@File?5exists?$AA@ 0094ad20     libc:syserr.obj
 0002:0004ed2c       ??_C@_0BA@LPOH@Resource?5device?$AA@ 0094ad2c     libc:syserr.obj
 0002:0004ed3c       ??_C@_0O@NOFB@Unknown?5error?$AA@ 0094ad3c     libc:syserr.obj
 0002:0004ed4c       ??_C@_0M@MLJM@Bad?5address?$AA@ 0094ad4c     libc:syserr.obj
 0002:0004ed58       ??_C@_0BC@DJON@Permission?5denied?$AA@ 0094ad58     libc:syserr.obj
 0002:0004ed6c       ??_C@_0BB@KDDC@Not?5enough?5space?$AA@ 0094ad6c     libc:syserr.obj
 0002:0004ed80       ??_C@_0CB@BBBH@Resource?5temporarily?5unavailable@ 0094ad80     libc:syserr.obj
 0002:0004eda4       ??_C@_0BD@ODIH@No?5child?5processes?$AA@ 0094ada4     libc:syserr.obj
 0002:0004edb8       ??_C@_0BE@CDDH@Bad?5file?5descriptor?$AA@ 0094adb8     libc:syserr.obj
 0002:0004edcc       ??_C@_0BC@BICL@Exec?5format?5error?$AA@ 0094adcc     libc:syserr.obj
 0002:0004ede0       ??_C@_0BC@IGMC@Arg?5list?5too?5long?$AA@ 0094ade0     libc:syserr.obj
 0002:0004edf4       ??_C@_0BK@HLB@No?5such?5device?5or?5address?$AA@ 0094adf4     libc:syserr.obj
 0002:0004ee10       ??_C@_0BD@MPKK@Input?1output?5error?$AA@ 0094ae10     libc:syserr.obj
 0002:0004ee24       ??_C@_0BK@ODCM@Interrupted?5function?5call?$AA@ 0094ae24     libc:syserr.obj
 0002:0004ee40       ??_C@_0BA@BPKN@No?5such?5process?$AA@ 0094ae40     libc:syserr.obj
 0002:0004ee50       ??_C@_0BK@IEMO@No?5such?5file?5or?5directory?$AA@ 0094ae50     libc:syserr.obj
 0002:0004ee6c       ??_C@_0BI@IIAE@Operation?5not?5permitted?$AA@ 0094ae6c     libc:syserr.obj
 0002:0004ee84       ??_C@_08KKBH@No?5error?$AA@ 0094ae84     libc:syserr.obj
 0002:0004ee90       ??_C@_0BD@NJFP@GetLastActivePopup?$AA@ 0094ae90     libc:crtmbox.obj
 0002:0004eea4       ??_C@_0BA@GILI@GetActiveWindow?$AA@ 0094aea4     libc:crtmbox.obj
 0002:0004eeb4       ??_C@_0M@PKCK@MessageBoxA?$AA@ 0094aeb4     libc:crtmbox.obj
 0002:0004eec0       ??_C@_0L@HKL@user32?4dll?$AA@ 0094aec0     libc:crtmbox.obj
 0002:0004eecc       ___dnames                  0094aecc     libc:timeset.obj
 0002:0004eee4       ___mnames                  0094aee4     libc:timeset.obj
 0002:0004ef0c       ??_C@_02JHIA@TZ?$AA@       0094af0c     libc:tzset.obj
 0002:0004ef28       ??_C@_06PAPI@1?$CDQNAN?$AA@ 0094af28     libc:x10fout.obj
 0002:0004ef30       ??_C@_05BGNL@1?$CDINF?$AA@ 0094af30     libc:x10fout.obj
 0002:0004ef38       ??_C@_05EDPF@1?$CDIND?$AA@ 0094af38     libc:x10fout.obj
 0002:0004ef40       ??_C@_06LKFM@1?$CDSNAN?$AA@ 0094af40     libc:x10fout.obj
 0002:0004ef48       ??_C@_03GAFO@_yn?$AA@      0094af48     libc:fpexcept.obj
 0002:0004ef4c       ??_C@_03GNLD@_y1?$AA@      0094af4c     libc:fpexcept.obj
 0002:0004ef50       ??_C@_03MHCE@_y0?$AA@      0094af50     libc:fpexcept.obj
 0002:0004ef54       ??_C@_05PAK@frexp?$AA@     0094af54     libc:fpexcept.obj
 0002:0004ef5c       ??_C@_04JKCH@fmod?$AA@     0094af5c     libc:fpexcept.obj
 0002:0004ef64       ??_C@_06GGHF@_hypot?$AA@   0094af64     libc:fpexcept.obj
 0002:0004ef6c       ??_C@_05JNMC@_cabs?$AA@    0094af6c     libc:fpexcept.obj
 0002:0004ef74       ??_C@_05MEKH@ldexp?$AA@    0094af74     libc:fpexcept.obj
 0002:0004ef7c       ??_C@_04KAOJ@modf?$AA@     0094af7c     libc:fpexcept.obj
 0002:0004ef84       ??_C@_04EHAJ@fabs?$AA@     0094af84     libc:fpexcept.obj
 0002:0004ef8c       ??_C@_05MFBN@floor?$AA@    0094af8c     libc:fpexcept.obj
 0002:0004ef94       ??_C@_04JJMP@ceil?$AA@     0094af94     libc:fpexcept.obj
 0002:0004ef9c       ??_C@_03JLPI@tan?$AA@      0094af9c     libc:fpexcept.obj
 0002:0004efa0       ??_C@_03DLFL@cos?$AA@      0094afa0     libc:fpexcept.obj
 0002:0004efa4       ??_C@_03JAMN@sin?$AA@      0094afa4     libc:fpexcept.obj
 0002:0004efa8       ??_C@_04LMBE@sqrt?$AA@     0094afa8     libc:fpexcept.obj
 0002:0004efb0       ??_C@_05BFPO@atan2?$AA@    0094afb0     libc:fpexcept.obj
 0002:0004efb8       ??_C@_04EAGN@atan?$AA@     0094afb8     libc:fpexcept.obj
 0002:0004efc0       ??_C@_04OAMO@acos?$AA@     0094afc0     libc:fpexcept.obj
 0002:0004efc8       ??_C@_04ELFI@asin?$AA@     0094afc8     libc:fpexcept.obj
 0002:0004efd0       ??_C@_04LFAD@tanh?$AA@     0094afd0     libc:fpexcept.obj
 0002:0004efd8       ??_C@_04PFKD@cosh?$AA@     0094afd8     libc:fpexcept.obj
 0002:0004efe0       ??_C@_04NPAI@sinh?$AA@     0094afe0     libc:fpexcept.obj
 0002:0004efe8       ??_C@_05IJHH@log10?$AA@    0094afe8     libc:fpexcept.obj
 0002:0004eff0       ??_C@_03BGKD@log?$AA@      0094aff0     libc:fpexcept.obj
 0002:0004eff4       ??_C@_03EGFG@pow?$AA@      0094aff4     libc:fpexcept.obj
 0002:0004eff8       ??_C@_03CDGJ@exp?$AA@      0094aff8     libc:fpexcept.obj
 0002:0004f30c       ??_C@_01PJCK@?4?$AA@       0094b30c     libc:tempnam.obj
 0002:0004f310       ??_C@_01PCFE@?2?$AA@       0094b310     libc:tempnam.obj
 0002:0004f314       ??_C@_03LDNL@TMP?$AA@      0094b314     libc:tempnam.obj
 0002:0004f318       ??_C@_06MICP@CONIN$?$AA@   0094b318     libc:initcon.obj
 0002:0004f320       ??_C@_07GLCC@CONOUT$?$AA@  0094b320     libc:initcon.obj
 0002:0004f328       __IMPORT_DESCRIPTOR_USER32 0094b328     user32:USER32.dll
 0002:0004f33c       __IMPORT_DESCRIPTOR_KERNEL32 0094b33c     kernel32:KERNEL32.dll
 0002:0004f350       __NULL_IMPORT_DESCRIPTOR   0094b350     user32:USER32.dll
 0003:00000000       ___xc_a                    0094f000     libc:crt0init.obj
 0003:00000004       ___xc_z                    0094f004     libc:crt0init.obj
 0003:00000008       ___xi_a                    0094f008     libc:crt0init.obj
 0003:00000014       ___xi_z                    0094f014     libc:crt0init.obj
 0003:00000018       ___xp_a                    0094f018     libc:crt0init.obj
 0003:00000028       ___xp_z                    0094f028     libc:crt0init.obj
 0003:0000002c       ___xt_a                    0094f02c     libc:crt0init.obj
 0003:00000030       ___xt_z                    0094f030     libc:crt0init.obj
 0003:00387240       _MODULE@gm_globaldata_     00cd6240     Global.obj
 0003:01ee7810       _MODULE@lms_citiwaterbudgets_ 02836810     Water_CityModel.obj
 0003:01ee8468       _jwe_lca                   02837468     fj90i:jwe_xilc.obj
 0003:01eeb488       _jwe_efcs                  0283a488     fj90i:jwe_eerm.obj
 0003:01eed438       _jwe_iend                  0283c438     fj90i:jwe_iend.obj
 0003:01eedd20       _jwe_ertb                  0283cd20     fj90i:jwe_ertb.obj
 0003:01eef83c       _jwe_emto                  0283e83c     fj90i:jwe_emso.obj
 0003:01eef840       _jwe_emno                  0283e840     fj90i:jwe_emso.obj
 0003:01eef850       _jwe_emio                  0283e850     fj90i:jwe_emso.obj
 0003:01ef0058       _jwe_emts                  0283f058     fj90i:jwe_emss.obj
 0003:01ef0064       _jwe_emns                  0283f064     fj90i:jwe_emss.obj
 0003:01ef0084       _jwe_emis                  0283f084     fj90i:jwe_emss.obj
 0003:01ef24f0       _jwe_emtf                  028414f0     fj90i:jwe_emsf.obj
 0003:01ef24f8       _jwe_emnf                  028414f8     fj90i:jwe_emsf.obj
 0003:01ef2510       _jwe_emif                  02841510     fj90i:jwe_emsf.obj
 0003:01ef2fa0       _jwe_emti                  02841fa0     fj90i:jwe_emsi.obj
 0003:01ef2fc0       _jwe_emni                  02841fc0     fj90i:jwe_emsi.obj
 0003:01ef3008       _jwe_emii                  02842008     fj90i:jwe_emsi.obj
 0003:01ef3be8       _jwe_emtx                  02842be8     fj90i:jwe_emsx.obj
 0003:01ef3bf4       _jwe_emnx                  02842bf4     fj90i:jwe_emsx.obj
 0003:01ef3c14       _jwe_emix                  02842c14     fj90i:jwe_emsx.obj
 0003:01ef43c0       _jwe_edeb                  028433c0     fj90i:jwe_ems5.obj
 0003:01ef47a8       _jwe_esub                  028437a8     fj90i:jwe_ems5.obj
 0003:01ef4ce8       _jwe_esyt                  02843ce8     fj90i:jwe_ems5.obj
 0003:01ef4fc8       _jwe_emt5                  02843fc8     fj90i:jwe_ems5.obj
 0003:01ef4fd4       _jwe_emn5                  02843fd4     fj90i:jwe_ems5.obj
 0003:01ef4ff4       _jwe_emi5                  02843ff4     fj90i:jwe_ems5.obj
 0003:01ef6158       _jwe_efn1                  02845158     fj90i:jwe_ems4.obj
 0003:01ef7130       _jwe_efn2                  02846130     fj90i:jwe_ems4.obj
 0003:01ef7590       _jwe_emt4                  02846590     fj90i:jwe_ems4.obj
 0003:01ef7598       _jwe_emn4                  02846598     fj90i:jwe_ems4.obj
 0003:01ef75b0       _jwe_emi4                  028465b0     fj90i:jwe_ems4.obj
 0003:01ef7b40       _jwe_eili                  02846b40     fj90i:jwe_ems3.obj
 0003:01ef80d8       _jwe_eifm                  028470d8     fj90i:jwe_ems3.obj
 0003:01ef87f0       _jwe_eide                  028477f0     fj90i:jwe_ems3.obj
 0003:01ef8ad0       _jwe_emt3                  02847ad0     fj90i:jwe_ems3.obj
 0003:01ef8adc       _jwe_emn3                  02847adc     fj90i:jwe_ems3.obj
 0003:01ef8afc       _jwe_emi3                  02847afc     fj90i:jwe_ems3.obj
 0003:01ef8f98       _jwe_eifc                  02847f98     fj90i:jwe_ems2.obj
 0003:01ef9bc8       _jwe_eisp                  02848bc8     fj90i:jwe_ems2.obj
 0003:01efa2a0       _jwe_eics                  028492a0     fj90i:jwe_ems2.obj
 0003:01efa480       _jwe_emt2                  02849480     fj90i:jwe_ems2.obj
 0003:01efa48c       _jwe_emn2                  0284948c     fj90i:jwe_ems2.obj
 0003:01efa4ac       _jwe_emi2                  028494ac     fj90i:jwe_ems2.obj
 0003:01efa6c8       _jwe_estm                  028496c8     fj90i:jwe_ems1.obj
 0003:01efa928       _jwe_eexm                  02849928     fj90i:jwe_ems1.obj
 0003:01efab48       _jwe_eimc                  02849b48     fj90i:jwe_ems1.obj
 0003:01efacc8       _jwe_emt1                  02849cc8     fj90i:jwe_ems1.obj
 0003:01efacd8       _jwe_emn1                  02849cd8     fj90i:jwe_ems1.obj
 0003:01efacf8       _jwe_emi1                  02849cf8     fj90i:jwe_ems1.obj
 0003:01efad00       __aexit_rtn                02849d00     libc:crt0.obj
 0003:01efad04       ___app_type                02849d04     libc:crt0.obj
 0003:01efad08       __fltused                  02849d08     libc:fpinit.obj
 0003:01efad0c       __ldused                   02849d0c     libc:fpinit.obj
 0003:01efad10       __FPinit                   02849d10     libc:fpinit.obj
 0003:01efad14       __FPmtinit                 02849d14     libc:fpinit.obj
 0003:01efad18       __FPmtterm                 02849d18     libc:fpinit.obj
 0003:01efad20       __iob                      02849d20     libc:_file.obj
 0003:01efafa0       __pctype                   02849fa0     libc:ctype.obj
 0003:01efafa4       __pwctype                  02849fa4     libc:ctype.obj
 0003:01efafa8       __ctype                    02849fa8     libc:ctype.obj
 0003:01efb1ac       ___mb_cur_max              0284a1ac     libc:nlsdata1.obj
 0003:01efb1b0       ___decimal_point           0284a1b0     libc:nlsdata1.obj
 0003:01efb1b4       ___decimal_point_length    0284a1b4     libc:nlsdata1.obj
 0003:01efb1c0       __half                     0284a1c0     libc:pow.obj
 0003:01efb1d0       __XcptActTab               0284a1d0     libc:winxfltr.obj
 0003:01efb248       __First_FPE_Indx           0284a248     libc:winxfltr.obj
 0003:01efb24c       __Num_FPE                  0284a24c     libc:winxfltr.obj
 0003:01efb250       __XcptActTabCount          0284a250     libc:winxfltr.obj
 0003:01efb254       __fpecode                  0284a254     libc:winxfltr.obj
 0003:01efb258       ___badioinfo               0284a258     libc:ioinit.obj
 0003:01efb260       __amblksiz                 0284a260     libc:heapinit.obj
 0003:01efb264       __NLG_Destination          0284a264     libc:exsup.obj
 0003:01efb308       __cfltcvt_tab              0284a308     libc:cmiscdat.obj
 0003:01efb490       ___nullstring              0284a490     libc:output.obj
 0003:01efb494       ___wnullstring             0284a494     libc:output.obj
 0003:01efb4a0       __infinity                 0284a4a0     libc:87tran.obj
 0003:01efb4aa       __minfinity                0284a4aa     libc:87tran.obj
 0003:01efb4b4       __logemax                  0284a4b4     libc:87tran.obj
 0003:01efb4e4       __OP_EXPjmptab             0284a4e4     libc:87tran.obj
 0003:01efb510       __indefinite               0284a510     libc:87disp.obj
 0003:01efb51a       __piby2                    0284a51a     libc:87disp.obj
 0003:01efb52c       __cpower                   0284a52c     libc:87disp.obj
 0003:01efb540       ___old_small_block_heap    0284a540     libc:sbheap.obj
 0003:01efd564       ___old_sbh_threshold       0284c564     libc:sbheap.obj
 0003:01efd570       __sys_errlist              0284c570     libc:syserr.obj
 0003:01efd620       __sys_nerr                 0284c620     libc:syserr.obj
 0003:01efd750       __timezone                 0284c750     libc:timeset.obj
 0003:01efd754       __daylight                 0284c754     libc:timeset.obj
 0003:01efd758       __dstbias                  0284c758     libc:timeset.obj
 0003:01efd7dc       __tzname                   0284c7dc     libc:timeset.obj
 0003:01efd804       __lpdays                   0284c804     libc:days.obj
 0003:01efd838       __days                     0284c838     libc:days.obj
 0003:01efd9d0       __d_inf                    0284c9d0     libc:util.obj
 0003:01efd9d8       __d_ind                    0284c9d8     libc:util.obj
 0003:01efd9e0       __d_max                    0284c9e0     libc:util.obj
 0003:01efd9e8       __d_min                    0284c9e8     libc:util.obj
 0003:01efd9f0       __d_mzero                  0284c9f0     libc:util.obj
 0003:01efdad8       __matherr_flag             0284cad8     libc:matherr.obj
 0003:01efdaf8       __pow10pos                 0284caf8     libc:constpow.obj
 0003:01efdc58       __pow10neg                 0284cc58     libc:constpow.obj
 0003:01efddc0       __tmpoff                   0284cdc0     libc:rmtmp.obj
 0003:01efddc4       __tempoff                  0284cdc4     libc:rmtmp.obj
 0003:01efddc8       __coninpfh                 0284cdc8     libc:initcon.obj
 0003:01efddcc       __confh                    0284cdcc     libc:initcon.obj
 0003:020c62e0       _jwe_act                   02a152e0     fj90i:jwe_xalc.obj
 0003:020c6328       _jwe_xsfc                  02a15328     fj90i:jwe_xstp.obj
 0003:020c636c       _jwe_x_init                02a1536c     fj90i:jwe_xint.obj
 0003:020c63a0       _jwe_efca                  02a153a0     fj90i:jwe_eerm.obj
 0003:020c6528       _jwe_eftb                  02a15528     fj90i:jwe_etbm.obj
 0003:020c65f0       __aenvptr                  02a155f0     libc:crt0.obj
 0003:020c65f4       __wenvptr                  02a155f4     libc:crt0.obj
 0003:020c65f8       ___error_mode              02a155f8     libc:crt0.obj
 0003:020c65fc       ___fastflag                02a155fc     libc:fpinit.obj
 0003:020c6600       __adjust_fdiv              02a15600     libc:fpinit.obj
 0003:020c6604       __cflush                   02a15604     libc:_file.obj
 0003:020c6608       _errno                     02a15608     libc:crt0dat.obj
 0003:020c660c       __doserrno                 02a1560c     libc:crt0dat.obj
 0003:020c6610       __umaskval                 02a15610     libc:crt0dat.obj
 0003:020c6614       __osver                    02a15614     libc:crt0dat.obj
 0003:020c6618       __winver                   02a15618     libc:crt0dat.obj
 0003:020c661c       __winmajor                 02a1561c     libc:crt0dat.obj
 0003:020c6620       __winminor                 02a15620     libc:crt0dat.obj
 0003:020c6624       ___argc                    02a15624     libc:crt0dat.obj
 0003:020c6628       ___argv                    02a15628     libc:crt0dat.obj
 0003:020c662c       ___wargv                   02a1562c     libc:crt0dat.obj
 0003:020c6630       __environ                  02a15630     libc:crt0dat.obj
 0003:020c6634       ___initenv                 02a15634     libc:crt0dat.obj
 0003:020c6638       __wenviron                 02a15638     libc:crt0dat.obj
 0003:020c663c       ___winitenv                02a1563c     libc:crt0dat.obj
 0003:020c6640       __pgmptr                   02a15640     libc:crt0dat.obj
 0003:020c6644       __wpgmptr                  02a15644     libc:crt0dat.obj
 0003:020c6648       __exitflag                 02a15648     libc:crt0dat.obj
 0003:020c664c       __C_Termination_Done       02a1564c     libc:crt0dat.obj
 0003:020c6650       __C_Exit_Done              02a15650     libc:crt0dat.obj
 0003:020c667c       __pxcptinfoptrs            02a1567c     libc:winxfltr.obj
 0003:020c6788       __adbgmsg                  02a15788     libc:crt0msg.obj
 0003:020c679c       __stdbuf                   02a1579c     libc:_sftbuf.obj
 0003:020c67ac       ___lc_handle               02a157ac     libc:nlsdata2.obj
 0003:020c67c4       ___lc_codepage             02a157c4     libc:nlsdata2.obj
 0003:020c67c8       ___lc_collate_cp           02a157c8     libc:nlsdata2.obj
 0003:020c67d0       __newmode                  02a157d0     libc:_newmode.obj
 0003:020c67d4       ?_pnhHeap@@3P6AHI@ZA       02a157d4     libc:handler.obj
 0003:020c68f0       __commode                  02a158f0     libc:ncommode.obj
 0003:020c68f4       __fmode                    02a158f4     libc:txtmode.obj
 0003:020c68f8       __old_pfxlen               02a158f8     libc:rmtmp.obj
 0003:020c6900       _MODULE@__lms_citiwaterbudgets_ 02a15900     <common>
 0003:020c6c00       _MODULE@lms_srpsalttonto_  02a15c00     <common>
 0003:020c6c80       _MODULE@lms_river_ba_      02a15c80     <common>
 0003:020c6cc0       _____lms_srpwateroperationscmn_ 02a15cc0     <common>
 0003:020c6cd4       _MODULE@lms_srpwateroperations_ 02a15cd4     <common>
 0003:020c6ce0       _MODULE@gm_euler_          02a15ce0     <common>
 0003:020c6d60       _____lms_srpsalttontocmn_  02a15d60     <common>
 0003:020c6d80       _____lms_river_bacmn_      02a15d80     <common>
 0003:020c6da0       _____gm_eulercmn_          02a15da0     <common>
 0003:020c6db4       _MODULE@gm_versioncontrol_ 02a15db4     <common>
 0003:020c6dc0       _MODULE@__gm_globaldata_   02a15dc0     <common>
 0003:020c6fc0       _____lms_designations_bcmn_ 02a15fc0     <common>
 0003:020c6fe0       _MODULE@lms_designations_b_ 02a15fe0     <common>
 0003:020c7000       _______lms_citiwaterbudgetscmn_ 02a16000     <common>
 0003:020c7020       _____gm_versioncontrolcmn_ 02a16020     <common>
 0003:020c7040       _____lms_agwaterbudgetscmn_ 02a16040     <common>
 0003:020c7060       _MODULE@lms_agwaterbudgets_ 02a16060     <common>
 0003:020c7100       _____cmn_                  02a16100     <common>
 0003:020c7120       _______gm_globaldatacmn_   02a16120     <common>
 0003:020c7140       __BLNK__                   02a16140     <common>
 0003:022d1874       _jwe_etb_fca               02c20874     <common>
 0003:022d1878       _heni_add                  02c20878     <common>
 0003:022d187c       _recur_call                02c2087c     <common>
 0003:022d1880       _move_top                  02c20880     <common>
 0003:022d1884       _item_a                    02c20884     <common>
 0003:022d1888       _top_addr                  02c20888     <common>
 0003:022d188c       _arry_num                  02c2088c     <common>
 0003:022d1890       _scla_num                  02c20890     <common>
 0003:022d1894       _type_flag                 02c20894     <common>
 0003:022d1898       __fdivflag                 02c20898     <common>
 0003:022d18a0       _jwe_eprm                  02c208a0     <common>
 0003:022d1940       _jwe_iuia                  02c20940     <common>
 0003:022d1944       _jwe_ifca                  02c20944     <common>
 0003:022d1948       ___mbcodepage              02c20948     <common>
 0003:022d1950       ___mbulinfo                02c20950     <common>
 0003:022d195c       ___ismbcodepage            02c2095c     <common>
 0003:022d1960       __mbcasemap                02c20960     <common>
 0003:022d1a60       __mbctype                  02c20a60     <common>
 0003:022d1b64       ___mblcid                  02c20b64     <common>
 0003:022d1b68       ___sbh_sizeHeaderList      02c20b68     <common>
 0003:022d1b6c       ___sbh_indGroupDefer       02c20b6c     <common>
 0003:022d1b70       ___sbh_pHeaderScan         02c20b70     <common>
 0003:022d1b74       ___sbh_initialized         02c20b74     <common>
 0003:022d1b78       ___sbh_pHeaderDefer        02c20b78     <common>
 0003:022d1b7c       ___sbh_cntHeaderList       02c20b7c     <common>
 0003:022d1b80       ___sbh_pHeaderList         02c20b80     <common>
 0003:022d1b84       ___sbh_threshold           02c20b84     <common>
 0003:022d1b88       __crtheap                  02c20b88     <common>
 0003:022d1b8c       ___active_heap             02c20b8c     <common>
 0003:022d1ba0       ___pioinfo                 02c20ba0     <common>
 0003:022d1ca0       __nhandle                  02c20ca0     <common>
 0003:022d1ca4       ___env_initialized         02c20ca4     <common>
 0003:022d1ca8       ___mbctype_initialized     02c20ca8     <common>
 0003:022d1cac       ___onexitend               02c20cac     <common>
 0003:022d1cb0       ___onexitbegin             02c20cb0     <common>
 0003:022d1cb4       ___piob                    02c20cb4     <common>
 0003:022d1cc0       __bufin                    02c20cc0     <common>
 0003:022d2cc0       __nstream                  02c21cc0     <common>
 0003:022d2cc4       __acmdln                   02c21cc4     <common>

 entry point at        0001:004e94c5

 Static symbols

 0001:004e8fa0       _jwe_etb_sort              008ecfa0 f   fj90i:jwe_etbf.obj
 0001:004e7870       _jwe_eied                  008eb870 f   fj90i:jwe_emsg.obj
 0001:004e68c0       _jwe_ipsd1                 008ea8c0 f   fj90i:jwe_ipsd.obj
 0001:004e5bf0       _jwe_ibfd1                 008e9bf0 f   fj90i:jwe_ibfd.obj
 0001:004e4340       _jwe_itfn1                 008e8340 f   fj90i:jwe_itfn.obj
 0001:004e3210       _jwe_ifgf1                 008e7210 f   fj90i:jwe_ifgf.obj
 0001:004e22e0       _jwe_icpf1                 008e62e0 f   fj90i:jwe_icpf.obj
 0001:004e2400       _jwe_icpf2                 008e6400 f   fj90i:jwe_icpf.obj
 0001:004e24f0       _jwe_icpf3                 008e64f0 f   fj90i:jwe_icpf.obj
 0001:004e25f0       _jwe_icpf4                 008e65f0 f   fj90i:jwe_icpf.obj
 0001:004e2740       _jwe_icpf5                 008e6740 f   fj90i:jwe_icpf.obj
 0001:004e1830       _jwe_ifpf1                 008e5830 f   fj90i:jwe_ifpf.obj
 0001:004e1a30       _jwe_ifpf2                 008e5a30 f   fj90i:jwe_ifpf.obj
 0001:004e1bc0       _jwe_ifpf3                 008e5bc0 f   fj90i:jwe_ifpf.obj
 0001:004e0df0       _jwe_ibpd1                 008e4df0 f   fj90i:jwe_ibpd.obj
 0001:004e0620       _jwe_iupd1                 008e4620 f   fj90i:jwe_iupd.obj
 0001:004dfc90       _jwe_idgw                  008e3c90 f   fj90i:jwe_idgt.obj
 0001:004dfeb0       _jwe_idgr                  008e3eb0 f   fj90i:jwe_idgt.obj
 0001:004dbae0       _jwe_e_cnv_e16c            008dfae0 f   fj90i:jwe_etbm.obj
 0001:004dbb40       _jwe_e_mk_tb_tbl           008dfb40 f   fj90i:jwe_etbm.obj
 0001:004dbfe0       _jwe_e_free_tbc            008dffe0 f   fj90i:jwe_etbm.obj
 0001:004daa10       _jwe_iend_stdfile          008dea10 f   fj90i:jwe_iend.obj
 0001:004da100       _jwe_esye                  008de100 f   fj90i:jwe_errr.obj
 0001:004d99b0       _jwe_ifop1                 008dd9b0 f   fj90i:jwe_ifop.obj
 0001:004d89f0       _jwe_idce                  008dc9f0 f   fj90i:jwe_idcf.obj
 0001:004d8711       _chk_eflags_id             008dc711 f   fj90i:jwe_xcpu.obj
 0001:004d8733       _cpuid                     008dc733 f   fj90i:jwe_xcpu.obj
 0001:004d4bd0       _jwe_iclp                  008d8bd0 f   fj90i:jwe_icft.obj
 0001:004d4cf0       _jwe_icrp                  008d8cf0 f   fj90i:jwe_icft.obj
 0001:004d4e40       _jwe_icfd                  008d8e40 f   fj90i:jwe_icft.obj
 0001:004d4fb0       _jwe_icq_                  008d8fb0 f   fj90i:jwe_icft.obj
 0001:004d5210       _jwe_ice_                  008d9210 f   fj90i:jwe_icft.obj
 0001:004d54d0       _jwe_ici_                  008d94d0 f   fj90i:jwe_icft.obj
 0001:004d5630       _jwe_ict_                  008d9630 f   fj90i:jwe_icft.obj
 0001:004d5890       _jwe_ictd                  008d9890 f   fj90i:jwe_icft.obj
 0001:004d5910       _jwe_ica_                  008d9910 f   fj90i:jwe_icft.obj
 0001:004d5990       _jwe_iclz                  008d9990 f   fj90i:jwe_icft.obj
 0001:004d5b70       _jwe_icx_                  008d9b70 f   fj90i:jwe_icft.obj
 0001:004d5c50       _jwe_icsr                  008d9c50 f   fj90i:jwe_icft.obj
 0001:004d5d00       _jwe_ics_                  008d9d00 f   fj90i:jwe_icft.obj
 0001:004d5e00       _jwe_icb_                  008d9e00 f   fj90i:jwe_icft.obj
 0001:004d6080       _jwe_ico_                  008da080 f   fj90i:jwe_icft.obj
 0001:004d6210       _jwe_iccl                  008da210 f   fj90i:jwe_icft.obj
 0001:004d62a0       _jwe_icbl                  008da2a0 f   fj90i:jwe_icft.obj
 0001:004d62b0       _jwe_iccn                  008da2b0 f   fj90i:jwe_icft.obj
 0001:004d6320       _jwe_icnm                  008da320 f   fj90i:jwe_icft.obj
 0001:004d6400       _jwe_icng                  008da400 f   fj90i:jwe_icft.obj
 0001:004d65a0       _jwe_icp_                  008da5a0 f   fj90i:jwe_icft.obj
 0001:004d6630       _jwe_icg_                  008da630 f   fj90i:jwe_icft.obj
 0001:004d67a0       _jwe_ich_                  008da7a0 f   fj90i:jwe_icft.obj
 0001:004d6a40       _jwe_icap                  008daa40 f   fj90i:jwe_icft.obj
 0001:004d6d40       _jwe_icch                  008dad40 f   fj90i:jwe_icft.obj
 0001:004d7170       _jwe_icc2                  008db170 f   fj90i:jwe_icft.obj
 0001:004d7330       _jwe_icrm                  008db330 f   fj90i:jwe_icft.obj
 0001:004d78e0       _jwe_ice1                  008db8e0 f   fj90i:jwe_icft.obj
 0001:004d79e0       _jwe_ice2                  008db9e0 f   fj90i:jwe_icft.obj
 0001:004d7a10       _jwe_icer                  008dba10 f   fj90i:jwe_icft.obj
 0001:004d7b20       _jwe_ic_w                  008dbb20 f   fj90i:jwe_icft.obj
 0001:004d7c00       _jwe_icwd                  008dbc00 f   fj90i:jwe_icft.obj
 0001:004d7cb0       _jwe_ic_e                  008dbcb0 f   fj90i:jwe_icft.obj
 0001:004d7d90       _jwe_icfl                  008dbd90 f   fj90i:jwe_icft.obj
 0001:004d7df0       _jwe_icgt                  008dbdf0 f   fj90i:jwe_icft.obj
 0001:004d7e50       _jwe_icpt                  008dbe50 f   fj90i:jwe_icft.obj
 0001:004d7ee0       _jwe_iccv                  008dbee0 f   fj90i:jwe_icft.obj
 0001:004d7f80       _jwe_icn_                  008dbf80 f   fj90i:jwe_icft.obj
 0001:004d7f90       _jwe_icbe                  008dbf90 f   fj90i:jwe_icft.obj
 0001:004d7fa0       _jwe_icsk                  008dbfa0 f   fj90i:jwe_icft.obj
 0001:004d7ff0       _jwe_iclf                  008dbff0 f   fj90i:jwe_icft.obj
 0001:004d8030       _jwe_icct                  008dc030 f   fj90i:jwe_icft.obj
 0001:004d80f0       _jwe_icw2                  008dc0f0 f   fj90i:jwe_icft.obj
 0001:004d8190       _jwe_icr_                  008dc190 f   fj90i:jwe_icft.obj
 0001:004d3790       _jwe_insu                  008d7790 f   fj90i:jwe_inas.obj
 0001:004d3a00       _jwe_insr                  008d7a00 f   fj90i:jwe_inas.obj
 0001:004d3ac0       _jwe_inmk                  008d7ac0 f   fj90i:jwe_inas.obj
 0001:004d4940       _jwe_inrr                  008d8940 f   fj90i:jwe_inas.obj
 0001:004d0550       _jwe_inrb                  008d4550 f   fj90i:jwe_inad.obj
 0001:004d07c0       _jwe_inbs                  008d47c0 f   fj90i:jwe_inad.obj
 0001:004d0840       _jwe_inna                  008d4840 f   fj90i:jwe_inad.obj
 0001:004d0b10       _jwe_innc                  008d4b10 f   fj90i:jwe_inad.obj
 0001:004d0cb0       _jwe_inpa                  008d4cb0 f   fj90i:jwe_inad.obj
 0001:004d0ee0       _jwe_inpg                  008d4ee0 f   fj90i:jwe_inad.obj
 0001:004d1070       _jwe_inps                  008d5070 f   fj90i:jwe_inad.obj
 0001:004d14b0       _jwe_inse                  008d54b0 f   fj90i:jwe_inad.obj
 0001:004d1850       _jwe_inm1                  008d5850 f   fj90i:jwe_inad.obj
 0001:004d1a60       _jwe_inpe                  008d5a60 f   fj90i:jwe_inad.obj
 0001:004d1b40       _jwe_inee                  008d5b40 f   fj90i:jwe_inad.obj
 0001:004d1ce0       _jwe_inpu                  008d5ce0 f   fj90i:jwe_inad.obj
 0001:004d1e50       _jwe_inue                  008d5e50 f   fj90i:jwe_inad.obj
 0001:004d1ee0       _jwe_inqn                  008d5ee0 f   fj90i:jwe_inad.obj
 0001:004d1f40       _jwe_inqt                  008d5f40 f   fj90i:jwe_inad.obj
 0001:004d1fe0       _jwe_incv                  008d5fe0 f   fj90i:jwe_inad.obj
 0001:004d2170       _jwe_incs                  008d6170 f   fj90i:jwe_inad.obj
 0001:004d2210       _jwe_inct                  008d6210 f   fj90i:jwe_inad.obj
 0001:004d2310       _jwe_inm2                  008d6310 f   fj90i:jwe_inad.obj
 0001:004d24d0       _jwe_inm3                  008d64d0 f   fj90i:jwe_inad.obj
 0001:004d25e0       _jwe_inet                  008d65e0 f   fj90i:jwe_inad.obj
 0001:004d2660       _jwe_inpt                  008d6660 f   fj90i:jwe_inad.obj
 0001:004d26c0       _jwe_incd                  008d66c0 f   fj90i:jwe_inad.obj
 0001:004cfec0       _jwe_ilie                  008d3ec0 f   fj90i:jwe_ielo.obj
 0001:004d0100       _jwe_ilze                  008d4100 f   fj90i:jwe_ielo.obj
 0001:004d01a0       _jwe_iloe                  008d41a0 f   fj90i:jwe_ielo.obj
 0001:004d0280       _jwe_ilbe                  008d4280 f   fj90i:jwe_ielo.obj
 0001:004d0350       _jwe_ilfe                  008d4350 f   fj90i:jwe_ielo.obj
 0001:004ce890       _jwe_ifps1                 008d2890 f   fj90i:jwe_ifps.obj
 0001:004ce910       _jwe_ifps2                 008d2910 f   fj90i:jwe_ifps.obj
 0001:004ce9e0       _jwe_ifps3                 008d29e0 f   fj90i:jwe_ifps.obj
 0001:004ce120       _jwe_icpt1                 008d2120 f   fj90i:jwe_icpt.obj
 0001:004ce3b0       _jwe_icpt2                 008d23b0 f   fj90i:jwe_icpt.obj
 0001:004ce480       _jwe_icpt3                 008d2480 f   fj90i:jwe_icpt.obj
 0001:004cd9b0       _jwe_icps1                 008d19b0 f   fj90i:jwe_icps.obj
 0001:004cdbf0       _jwe_icps2                 008d1bf0 f   fj90i:jwe_icps.obj
 0001:004cdcc0       _jwe_icps3                 008d1cc0 f   fj90i:jwe_icps.obj
 0001:004c7200       _jwe_iridd                 008cb200 f   fj90i:jwe_irio.obj
 0001:004c7560       _jwe_iricq                 008cb560 f   fj90i:jwe_irio.obj
 0001:004c8320       _jwe_irocd                 008cc320 f   fj90i:jwe_irio.obj
 0001:004c8b40       _jwe_idivmod               008ccb40 f   fj90i:jwe_irio.obj
 0001:004c8c30       _jwe_irocq                 008ccc30 f   fj90i:jwe_irio.obj
 0001:004c9530       _jwe_igetfig               008cd530 f   fj90i:jwe_irio.obj
 0001:004c95e0       _jwe_imul                  008cd5e0 f   fj90i:jwe_irio.obj
 0001:004c9850       _jwe_inormalize            008cd850 f   fj90i:jwe_irio.obj
 0001:004c9a00       _jwe_iaddxq                008cda00 f   fj90i:jwe_irio.obj
 0001:004c9b80       _jwe_igetdec               008cdb80 f   fj90i:jwe_irio.obj
 0001:004c9c40       _jwe_ixqtoq                008cdc40 f   fj90i:jwe_irio.obj
 0001:004c6ec0       _dummy                     008caec0 f   fj90i:jwe_xexs.obj
 0001:004c6ed0       _jwe_xamg                  008caed0 f   fj90i:jwe_xexs.obj
 0001:004c6f70       _jwe_xeed                  008caf70 f   fj90i:jwe_xexs.obj
 0001:004c5aa0       _jwe_ief0                  008c9aa0 f   fj90i:jwe_ipef.obj
 0001:004c5c60       _jwe_ief1                  008c9c60 f   fj90i:jwe_ipef.obj
 0001:004c5cb0       _jwe_ief2                  008c9cb0 f   fj90i:jwe_ipef.obj
 0001:004c5ed0       _jwe_ief3                  008c9ed0 f   fj90i:jwe_ipef.obj
 0001:004c5f00       _jwe_ief4                  008c9f00 f   fj90i:jwe_ipef.obj
 0001:004c5f10       _jwe_ief5                  008c9f10 f   fj90i:jwe_ipef.obj
 0001:004c5f50       _jwe_errproc               008c9f50 f   fj90i:jwe_ipef.obj
 0001:004c52e0       _jwe_ibs0                  008c92e0 f   fj90i:jwe_ipbs.obj
 0001:004c5400       _jwe_ibs1                  008c9400 f   fj90i:jwe_ipbs.obj
 0001:004c54d0       _jwe_ibs2                  008c94d0 f   fj90i:jwe_ipbs.obj
 0001:004c55f0       _jwe_ibs3                  008c95f0 f   fj90i:jwe_ipbs.obj
 0001:004c5600       _jwe_ibs4                  008c9600 f   fj90i:jwe_ipbs.obj
 0001:004c5610       _jwe_ibs5                  008c9610 f   fj90i:jwe_ipbs.obj
 0001:004c5620       _jwe_ibs6                  008c9620 f   fj90i:jwe_ipbs.obj
 0001:004c5670       _jwe_ibs7                  008c9670 f   fj90i:jwe_ipbs.obj
 0001:004c5720       _jwe_errproc               008c9720 f   fj90i:jwe_ipbs.obj
 0001:004c4bb0       _jwe_irw0                  008c8bb0 f   fj90i:jwe_iprw.obj
 0001:004c4c30       _jwe_irw1                  008c8c30 f   fj90i:jwe_iprw.obj
 0001:004c4ee0       _jwe_irw2                  008c8ee0 f   fj90i:jwe_iprw.obj
 0001:004c4ef0       _jwe_irw3                  008c8ef0 f   fj90i:jwe_iprw.obj
 0001:004c4f10       _jwe_irw4                  008c8f10 f   fj90i:jwe_iprw.obj
 0001:004c4f20       _jwe_errproc               008c8f20 f   fj90i:jwe_iprw.obj
 0001:004c4610       _jwe_iade                  008c8610 f   fj90i:jwe_iadc.obj
 0001:004c3c70       _jwe_iife                  008c7c70 f   fj90i:jwe_iipg.obj
 0001:004c2570       _jwe_inip                  008c6570 f   fj90i:jwe_inai.obj
 0001:004c26d0       _jwe_inss                  008c66d0 f   fj90i:jwe_inai.obj
 0001:004c29b0       _jwe_inar                  008c69b0 f   fj90i:jwe_inai.obj
 0001:004c2db0       _jwe_insb                  008c6db0 f   fj90i:jwe_inai.obj
 0001:004c3030       _jwe_inst                  008c7030 f   fj90i:jwe_inai.obj
 0001:004bf070       _jwe_incs                  008c3070 f   fj90i:jwe_inao.obj
 0001:004bf200       _jwe_inct                  008c3200 f   fj90i:jwe_inao.obj
 0001:004bf3d0       _jwe_inon                  008c33d0 f   fj90i:jwe_inao.obj
 0001:004bf4a0       _jwe_invo                  008c34a0 f   fj90i:jwe_inao.obj
 0001:004c0040       _jwe_inop                  008c4040 f   fj90i:jwe_inao.obj
 0001:004c0110       _jwe_in_n                  008c4110 f   fj90i:jwe_inao.obj
 0001:004c0190       _jwe_inoe                  008c4190 f   fj90i:jwe_inao.obj
 0001:004c0230       _jwe_in_c                  008c4230 f   fj90i:jwe_inao.obj
 0001:004c0300       _jwe_in_r                  008c4300 f   fj90i:jwe_inao.obj
 0001:004beb00       _jwe_imch                  008c2b00 f   fj90i:jwe_ifmt.obj
 0001:004bec50       _jwe_imgp                  008c2c50 f   fj90i:jwe_ifmt.obj
 0001:004becb0       _jwe_impp                  008c2cb0 f   fj90i:jwe_ifmt.obj
 0001:004bed40       _jwe_ifme                  008c2d40 f   fj90i:jwe_ifmt.obj
 0001:004bb720       _jwe_isip                  008bf720 f   fj90i:jwe_ifct.obj
 0001:004bd4e0       _jwe_ifrp                  008c14e0 f   fj90i:jwe_ifct.obj
 0001:004bd520       _jwe_ifer                  008c1520 f   fj90i:jwe_ifct.obj
 0001:004bd610       _jwe_ifcg                  008c1610 f   fj90i:jwe_ifct.obj
 0001:004bd6f0       _jwe_iftc                  008c16f0 f   fj90i:jwe_ifct.obj
 0001:004bb4c0       _err_end                   008bf4c0 f   fj90i:jwe_xdta.obj
 0001:004b97f0       _jwe_dace                  008bd7f0 f   fj90i:jwe_dack.obj
 0001:004ba020       _jwe_deat                  008be020 f   fj90i:jwe_dack.obj
 0001:004ba280       _jwe_deri                  008be280 f   fj90i:jwe_dack.obj
 0001:004ba2b0       _jwe_dety                  008be2b0 f   fj90i:jwe_dack.obj
 0001:004b59f0       _jwe_ddoe                  008b99f0 f   fj90i:jwe_ddoa.obj
 0001:004b5890       _jwe_ddoe                  008b9890 f   fj90i:jwe_ddou.obj
 0001:004b4a40       _jwe_errproc               008b8a40 f   fj90i:jwe_iflc.obj
 0001:004b36b0       _jwe_isc0                  008b76b0 f   fj90i:jwe_iscf.obj
 0001:004b3740       _jwe_isc1                  008b7740 f   fj90i:jwe_iscf.obj
 0001:004b37a0       _jwe_isc2                  008b77a0 f   fj90i:jwe_iscf.obj
 0001:004b3890       _jwe_isc3                  008b7890 f   fj90i:jwe_iscf.obj
 0001:004b3920       _jwe_isc4                  008b7920 f   fj90i:jwe_iscf.obj
 0001:004b3940       _jwe_isc5                  008b7940 f   fj90i:jwe_iscf.obj
 0001:004b3950       _jwe_isc6                  008b7950 f   fj90i:jwe_iscf.obj
 0001:004b3980       _jwe_isc7                  008b7980 f   fj90i:jwe_iscf.obj
 0001:004b3a00       _jwe_isc8                  008b7a00 f   fj90i:jwe_iscf.obj
 0001:004b3ab0       _jwe_isc9                  008b7ab0 f   fj90i:jwe_iscf.obj
 0001:004b3ac0       _jwe_is10                  008b7ac0 f   fj90i:jwe_iscf.obj
 0001:004b3ad0       _jwe_is11                  008b7ad0 f   fj90i:jwe_iscf.obj
 0001:004b3ae0       _jwe_iser                  008b7ae0 f   fj90i:jwe_iscf.obj
 0001:004b2880       _jwe_ilip                  008b6880 f   fj90i:jwe_ildi.obj
 0001:004b2a00       _jwe_iled                  008b6a00 f   fj90i:jwe_ildi.obj
 0001:004b32b0       _jwe_il_r                  008b72b0 f   fj90i:jwe_ildi.obj
 0001:004b1350       _jwe_ilno                  008b5350 f   fj90i:jwe_ilni.obj
 0001:004b1450       _jwe_iln1                  008b5450 f   fj90i:jwe_ilni.obj
 0001:004b1580       _jwe_iln2                  008b5580 f   fj90i:jwe_ilni.obj
 0001:004b15a0       _jwe_ilnp                  008b55a0 f   fj90i:jwe_ilni.obj
 0001:004b1f40       _jwe_ilnr                  008b5f40 f   fj90i:jwe_ilni.obj
 0001:004b2010       _jwe_ilng                  008b6010 f   fj90i:jwe_ilni.obj
 0001:004b2080       _jwe_ilnc                  008b6080 f   fj90i:jwe_ilni.obj
 0001:004b21a0       _jwe_ilns                  008b61a0 f   fj90i:jwe_ilni.obj
 0001:004b2280       _jwe_ilnl                  008b6280 f   fj90i:jwe_ilni.obj
 0001:004b2480       _jwe_ilne                  008b6480 f   fj90i:jwe_ilni.obj
 0001:004b26b0       _jwe_ilnf                  008b66b0 f   fj90i:jwe_ilni.obj
 0001:004add20       _jwe_iife                  008b1d20 f   fj90i:jwe_iedi.obj
 0001:004ade60       _jwe_iiip                  008b1e60 f   fj90i:jwe_iedi.obj
 0001:004ae100       _jwe_iimv                  008b2100 f   fj90i:jwe_iedi.obj
 0001:004ae1e0       _jwe_iidp                  008b21e0 f   fj90i:jwe_iedi.obj
 0001:004ae3d0       _jwe_idmv                  008b23d0 f   fj90i:jwe_iedi.obj
 0001:004ae4a0       _jwe_iiex                  008b24a0 f   fj90i:jwe_iedi.obj
 0001:004ae5b0       _jwe_iexp                  008b25b0 f   fj90i:jwe_iedi.obj
 0001:004ae6e0       _jwe_iied                  008b26e0 f   fj90i:jwe_iedi.obj
 0001:004ae800       _jwe_iiif                  008b2800 f   fj90i:jwe_iedi.obj
 0001:004ae8d0       _jwe_iiec                  008b28d0 f   fj90i:jwe_iedi.obj
 0001:004ae920       _jwe_iieo                  008b2920 f   fj90i:jwe_iedi.obj
 0001:004ae9c0       _jwe_iiri                  008b29c0 f   fj90i:jwe_iedi.obj
 0001:004aeac0       _jwe_iini                  008b2ac0 f   fj90i:jwe_iedi.obj
 0001:004aec20       _jwe_iiie                  008b2c20 f   fj90i:jwe_iedi.obj
 0001:004af330       _jwe_iile                  008b3330 f   fj90i:jwe_iedi.obj
 0001:004af640       _jwe_iize                  008b3640 f   fj90i:jwe_iedi.obj
 0001:004afa60       _jwe_iizs                  008b3a60 f   fj90i:jwe_iedi.obj
 0001:004afdf0       _jwe_iiae                  008b3df0 f   fj90i:jwe_iedi.obj
 0001:004afe90       _jwe_iiaw                  008b3e90 f   fj90i:jwe_iedi.obj
 0001:004afff0       _jwe_iire                  008b3ff0 f   fj90i:jwe_iedi.obj
 0001:004b0170       _jwe_iibe                  008b4170 f   fj90i:jwe_iedi.obj
 0001:004b0500       _jwe_iibs                  008b4500 f   fj90i:jwe_iedi.obj
 0001:004b07e0       _jwe_iioe                  008b47e0 f   fj90i:jwe_iedi.obj
 0001:004b0b50       _jwe_iios                  008b4b50 f   fj90i:jwe_iedi.obj
 0001:004b0e60       _jwe_iige                  008b4e60 f   fj90i:jwe_iedi.obj
 0001:004b0e80       _jwe_iine                  008b4e80 f   fj90i:jwe_iedi.obj
 0001:004b0e90       _jwe_iief                  008b4e90 f   fj90i:jwe_iedi.obj
 0001:004b1280       _jwe_iiqe                  008b5280 f   fj90i:jwe_iedi.obj
 0001:004ac400       _jwe_ilor                  008b0400 f   fj90i:jwe_ildo.obj
 0001:004ad5a0       _jwe_il_c                  008b15a0 f   fj90i:jwe_ildo.obj
 0001:004ad660       _jwe_il_r                  008b1660 f   fj90i:jwe_ildo.obj
 0001:004ad980       _jwe_iloc                  008b1980 f   fj90i:jwe_ildo.obj
 0001:004adb30       _jwe_iloe                  008b1b30 f   fj90i:jwe_ildo.obj
 0001:004a9320       _jwe_iofe                  008ad320 f   fj90i:jwe_iedo.obj
 0001:004a9590       _jwe_ioed                  008ad590 f   fj90i:jwe_iedo.obj
 0001:004a9f10       _jwe_ior0                  008adf10 f   fj90i:jwe_iedo.obj
 0001:004aa0a0       _jwe_ioni                  008ae0a0 f   fj90i:jwe_iedo.obj
 0001:004aa160       _jwe_ioic                  008ae160 f   fj90i:jwe_iedo.obj
 0001:004aa380       _jwe_ioge                  008ae380 f   fj90i:jwe_iedo.obj
 0001:004aa3c0       _jwe_iocl                  008ae3c0 f   fj90i:jwe_iedo.obj
 0001:004aa3f0       _jwe_ioie                  008ae3f0 f   fj90i:jwe_iedo.obj
 0001:004aa6b0       _jwe_ioig                  008ae6b0 f   fj90i:jwe_iedo.obj
 0001:004aa950       _jwe_iole                  008ae950 f   fj90i:jwe_iedo.obj
 0001:004aaa30       _jwe_ioaw                  008aea30 f   fj90i:jwe_iedo.obj
 0001:004aaac0       _jwe_ioae                  008aeac0 f   fj90i:jwe_iedo.obj
 0001:004aaaf0       _jwe_iozs                  008aeaf0 f   fj90i:jwe_iedo.obj
 0001:004aad40       _jwe_ioze                  008aed40 f   fj90i:jwe_iedo.obj
 0001:004aaf40       _jwe_ioen                  008aef40 f   fj90i:jwe_iedo.obj
 0001:004ab3f0       _jwe_ioes                  008af3f0 f   fj90i:jwe_iedo.obj
 0001:004ab790       _jwe_iore                  008af790 f   fj90i:jwe_iedo.obj
 0001:004ab820       _jwe_iobs                  008af820 f   fj90i:jwe_iedo.obj
 0001:004abb10       _jwe_iobe                  008afb10 f   fj90i:jwe_iedo.obj
 0001:004abdc0       _jwe_ioos                  008afdc0 f   fj90i:jwe_iedo.obj
 0001:004ac170       _jwe_iooe                  008b0170 f   fj90i:jwe_iedo.obj
 0001:004ac380       _jwe_ione                  008b0380 f   fj90i:jwe_iedo.obj
 0001:004a90e0       _jwe_ipse                  008ad0e0 f   fj90i:jwe_ipsf.obj
 0001:004a8de0       _jwe_iser                  008acde0 f   fj90i:jwe_isfm.obj
 0001:004a75c0       _jwe_xsch                  008ab5c0 f   fj90i:jwe_xopt.obj
 0001:004a7270       _err_end                   008ab270 f   fj90i:jwe_xadt.obj
 0001:004a6c70       _jwe_iifg                  008aac70 f   fj90i:jwe_iinf.obj
 0001:004a6d30       _jwe_iifp                  008aad30 f   fj90i:jwe_iinf.obj
 0001:004a6230       _jwe_error_call            008aa230 f   fj90i:jwe_xdal.obj
 0001:004a5c70       _jwe_error_call            008a9c70 f   fj90i:jwe_xalc.obj
 0001:004a4570       _jwe_iiqc                  008a8570 f   fj90i:jwe_iinq.obj
 0001:004a4c30       _jwe_iiqn                  008a8c30 f   fj90i:jwe_iinq.obj
 0001:004a4d30       _jwe_iiqt                  008a8d30 f   fj90i:jwe_iinq.obj
 0001:004a4f90       _jwe_iiqi                  008a8f90 f   fj90i:jwe_iinq.obj
 0001:004a5000       _jwe_wiqt                  008a9000 f   fj90i:jwe_iinq.obj
 0001:004a5060       _jwe_wiqf                  008a9060 f   fj90i:jwe_iinq.obj
 0001:004a5910       _jwe_ifls                  008a9910 f   fj90i:jwe_iinq.obj
 0001:004a59f0       _jwe_ifse                  008a99f0 f   fj90i:jwe_iinq.obj
 0001:004a5a30       _jwe_ifst                  008a9a30 f   fj90i:jwe_iinq.obj
 0001:004a2f60       _jwe_debe                  008a6f60 f   fj90i:jwe_debg.obj
 0001:004a0250       _jwe_iop0                  008a4250 f   fj90i:jwe_iocf.obj
 0001:004a0720       _jwe_iocl                  008a4720 f   fj90i:jwe_iocf.obj
 0001:004a0940       _jwe_iop1                  008a4940 f   fj90i:jwe_iocf.obj
 0001:004a1410       _jwe_iop2                  008a5410 f   fj90i:jwe_iocf.obj
 0001:004a15e0       _jwe_iop3                  008a55e0 f   fj90i:jwe_iocf.obj
 0001:004a1650       _jwe_iop5                  008a5650 f   fj90i:jwe_iocf.obj
 0001:004a1700       _jwe_iop4                  008a5700 f   fj90i:jwe_iocf.obj
 0001:004a17c0       _jwe_iop6                  008a57c0 f   fj90i:jwe_iocf.obj
 0001:004a1840       _jwe_iop7                  008a5840 f   fj90i:jwe_iocf.obj
 0001:004a1a40       _jwe_iopc                  008a5a40 f   fj90i:jwe_iocf.obj
 0001:004a1b10       _jwe_iopw                  008a5b10 f   fj90i:jwe_iocf.obj
 0001:004a1d90       _jwe_iope                  008a5d90 f   fj90i:jwe_iocf.obj
 0001:004a1fb0       _jwe_iops                  008a5fb0 f   fj90i:jwe_iocf.obj
 0001:004a2060       _jwe_iop8                  008a6060 f   fj90i:jwe_iocf.obj
 0001:004f7dce       _xtoa                      008fbdce f   libc:xtoa.obj
 0001:004f7ea0       _x64toa@20                 008fbea0 f   libc:xtoa.obj
 0001:004f7bdd       __stripquote               008fbbdd f   libc:tempnam.obj
 0001:004f7271       _output                    008fb271 f   libc:cprintf.obj
 0001:004f799e       _write_char                008fb99e f   libc:cprintf.obj
 0001:004f79b8       _write_multi_char          008fb9b8 f   libc:cprintf.obj
 0001:004f79e4       _write_string              008fb9e4 f   libc:cprintf.obj
 0001:004f7a17       _get_int_arg               008fba17 f   libc:cprintf.obj
 0001:004f7a24       _get_int64_arg             008fba24 f   libc:cprintf.obj
 0001:004f7a34       _get_short_arg             008fba34 f   libc:cprintf.obj
 0001:004f5c79       __get_fname                008f9c79 f   libc:fpexcept.obj
 0001:004f3374       label0                     008f7374 f   libc:adj_fdiv.obj
 0001:004f337a       label1                     008f737a f   libc:adj_fdiv.obj
 0001:004f337f       label2                     008f737f f   libc:adj_fdiv.obj
 0001:004f3385       label3                     008f7385 f   libc:adj_fdiv.obj
 0001:004f338a       label4                     008f738a f   libc:adj_fdiv.obj
 0001:004f3390       label5                     008f7390 f   libc:adj_fdiv.obj
 0001:004f3396       label6                     008f7396 f   libc:adj_fdiv.obj
 0001:004f339c       label7                     008f739c f   libc:adj_fdiv.obj
 0001:004f33a2       label8                     008f73a2 f   libc:adj_fdiv.obj
 0001:004f33be       label9                     008f73be f   libc:adj_fdiv.obj
 0001:004f33c3       label10                    008f73c3 f   libc:adj_fdiv.obj
 0001:004f33d9       label11                    008f73d9 f   libc:adj_fdiv.obj
 0001:004f33de       label12                    008f73de f   libc:adj_fdiv.obj
 0001:004f33fa       label13                    008f73fa f   libc:adj_fdiv.obj
 0001:004f340a       label14                    008f740a f   libc:adj_fdiv.obj
 0001:004f341e       label15                    008f741e f   libc:adj_fdiv.obj
 0001:004f342e       label16                    008f742e f   libc:adj_fdiv.obj
 0001:004f344e       label17                    008f744e f   libc:adj_fdiv.obj
 0001:004f3453       label18                    008f7453 f   libc:adj_fdiv.obj
 0001:004f346d       label19                    008f746d f   libc:adj_fdiv.obj
 0001:004f3472       label20                    008f7472 f   libc:adj_fdiv.obj
 0001:004f3492       label21                    008f7492 f   libc:adj_fdiv.obj
 0001:004f34a6       label22                    008f74a6 f   libc:adj_fdiv.obj
 0001:004f34be       label23                    008f74be f   libc:adj_fdiv.obj
 0001:004f34d2       label24                    008f74d2 f   libc:adj_fdiv.obj
 0001:004f34f2       label25                    008f74f2 f   libc:adj_fdiv.obj
 0001:004f34f7       label26                    008f74f7 f   libc:adj_fdiv.obj
 0001:004f3511       label27                    008f7511 f   libc:adj_fdiv.obj
 0001:004f3516       label28                    008f7516 f   libc:adj_fdiv.obj
 0001:004f3536       label29                    008f7536 f   libc:adj_fdiv.obj
 0001:004f354a       label30                    008f754a f   libc:adj_fdiv.obj
 0001:004f3562       label31                    008f7562 f   libc:adj_fdiv.obj
 0001:004f3576       label32                    008f7576 f   libc:adj_fdiv.obj
 0001:004f3596       label33                    008f7596 f   libc:adj_fdiv.obj
 0001:004f359b       label34                    008f759b f   libc:adj_fdiv.obj
 0001:004f35b5       label35                    008f75b5 f   libc:adj_fdiv.obj
 0001:004f35ba       label36                    008f75ba f   libc:adj_fdiv.obj
 0001:004f35da       label37                    008f75da f   libc:adj_fdiv.obj
 0001:004f35ee       label38                    008f75ee f   libc:adj_fdiv.obj
 0001:004f3606       label39                    008f7606 f   libc:adj_fdiv.obj
 0001:004f361a       label40                    008f761a f   libc:adj_fdiv.obj
 0001:004f363a       label41                    008f763a f   libc:adj_fdiv.obj
 0001:004f363f       label42                    008f763f f   libc:adj_fdiv.obj
 0001:004f3659       label43                    008f7659 f   libc:adj_fdiv.obj
 0001:004f365e       label44                    008f765e f   libc:adj_fdiv.obj
 0001:004f367e       label45                    008f767e f   libc:adj_fdiv.obj
 0001:004f3692       label46                    008f7692 f   libc:adj_fdiv.obj
 0001:004f36aa       label47                    008f76aa f   libc:adj_fdiv.obj
 0001:004f36be       label48                    008f76be f   libc:adj_fdiv.obj
 0001:004f36de       label49                    008f76de f   libc:adj_fdiv.obj
 0001:004f36e3       label50                    008f76e3 f   libc:adj_fdiv.obj
 0001:004f36fd       label51                    008f76fd f   libc:adj_fdiv.obj
 0001:004f3702       label52                    008f7702 f   libc:adj_fdiv.obj
 0001:004f3722       label53                    008f7722 f   libc:adj_fdiv.obj
 0001:004f3736       label54                    008f7736 f   libc:adj_fdiv.obj
 0001:004f374e       label55                    008f774e f   libc:adj_fdiv.obj
 0001:004f3762       label56                    008f7762 f   libc:adj_fdiv.obj
 0001:004f3782       label57                    008f7782 f   libc:adj_fdiv.obj
 0001:004f3787       label58                    008f7787 f   libc:adj_fdiv.obj
 0001:004f37a1       label59                    008f77a1 f   libc:adj_fdiv.obj
 0001:004f37a6       label60                    008f77a6 f   libc:adj_fdiv.obj
 0001:004f37c6       label61                    008f77c6 f   libc:adj_fdiv.obj
 0001:004f37da       label62                    008f77da f   libc:adj_fdiv.obj
 0001:004f37f2       label63                    008f77f2 f   libc:adj_fdiv.obj
 0001:004f3184       _findenv                   008f7184 f   libc:setenv.obj
 0001:004f31dc       _copy_environ              008f71dc f   libc:setenv.obj
 0001:004f2fd2       _strncnt                   008f6fd2 f   libc:a_cmp.obj
 0001:004f295e       _cvtdate                   008f695e f   libc:tzset.obj
 0001:004f18b3       _getSystemCP               008f58b3 f   libc:mbctype.obj
 0001:004f18fd       _CPtoLCID                  008f58fd f   libc:mbctype.obj
 0001:004f1930       _setSBCS                   008f5930 f   libc:mbctype.obj
 0001:004f1959       _setSBUpLow                008f5959 f   libc:mbctype.obj
 0001:004f0f22       _ctrlevent_capture@4       008f4f22 f   libc:winsig.obj
 0001:004f1087       _siglookup                 008f5087 f   libc:winsig.obj
 0001:004ef1b5       _strncnt                   008f31b5 f   libc:a_map.obj
 0001:004ee841       fFEXP                      008f2841 f   libc:87tran.obj
 0001:004ee981       _rtforexpinf               008f2981 f   libc:87tran.obj
 0001:004ee567       _write_char                008f2567 f   libc:output.obj
 0001:004ee59c       _write_multi_char          008f259c f   libc:output.obj
 0001:004ee5cd       _write_string              008f25cd f   libc:output.obj
 0001:004ee605       _get_int_arg               008f2605 f   libc:output.obj
 0001:004ee612       _get_int64_arg             008f2612 f   libc:output.obj
 0001:004ee622       _get_short_arg             008f2622 f   libc:output.obj
 0001:004ed760       _IsRootUNCName             008f1760 f   libc:stat.obj
 0001:004ed1c5       __cftoe_g                  008f11c5 f   libc:cvt.obj
 0001:004ed1ec       __cftof_g                  008f11ec f   libc:cvt.obj
 0001:004ed260       __shift                    008f1260 f   libc:cvt.obj
 0001:004eca5c       _gu_return                 008f0a5c f   libc:exsup.obj
 0001:004eca64       __unwind_handler           008f0a64 f   libc:exsup.obj
 0001:004ec315       _parse_cmdline             008f0315 f   libc:stdargv.obj
 0001:004ec180       _xcptlookup                008f0180 f   libc:winxfltr.obj
 0001:004ead5f       _doexit                    008eed5f f   libc:crt0dat.obj
 0001:004eadf8       __initterm                 008eedf8 f   libc:crt0dat.obj
 0001:004ea2d0       LeadUp1                    008ee2d0 f   libc:memmove.obj
 0001:004ea2fc       LeadUp2                    008ee2fc f   libc:memmove.obj
 0001:004ea320       LeadUp3                    008ee320 f   libc:memmove.obj
 0001:004ea39f       UnwindUp0                  008ee39f f   libc:memmove.obj
 0001:004ea38c       UnwindUp1                  008ee38c f   libc:memmove.obj
 0001:004ea384       UnwindUp2                  008ee384 f   libc:memmove.obj
 0001:004ea37c       UnwindUp3                  008ee37c f   libc:memmove.obj
 0001:004ea374       UnwindUp4                  008ee374 f   libc:memmove.obj
 0001:004ea36c       UnwindUp5                  008ee36c f   libc:memmove.obj
 0001:004ea364       UnwindUp6                  008ee364 f   libc:memmove.obj
 0001:004ea35c       UnwindUp7                  008ee35c f   libc:memmove.obj
 0001:004ea3b8       TrailUp0                   008ee3b8 f   libc:memmove.obj
 0001:004ea3c0       TrailUp1                   008ee3c0 f   libc:memmove.obj
 0001:004ea3cc       TrailUp2                   008ee3cc f   libc:memmove.obj
 0001:004ea3e0       TrailUp3                   008ee3e0 f   libc:memmove.obj
 0001:004ea458       LeadDown1                  008ee458 f   libc:memmove.obj
 0001:004ea478       LeadDown2                  008ee478 f   libc:memmove.obj
 0001:004ea4a0       LeadDown3                  008ee4a0 f   libc:memmove.obj
 0001:004ea4f4       UnwindDown7                008ee4f4 f   libc:memmove.obj
 0001:004ea4fc       UnwindDown6                008ee4fc f   libc:memmove.obj
 0001:004ea504       UnwindDown5                008ee504 f   libc:memmove.obj
 0001:004ea50c       UnwindDown4                008ee50c f   libc:memmove.obj
 0001:004ea514       UnwindDown3                008ee514 f   libc:memmove.obj
 0001:004ea51c       UnwindDown2                008ee51c f   libc:memmove.obj
 0001:004ea524       UnwindDown1                008ee524 f   libc:memmove.obj
 0001:004ea537       UnwindDown0                008ee537 f   libc:memmove.obj
 0001:004ea550       TrailDown0                 008ee550 f   libc:memmove.obj
 0001:004ea558       TrailDown1                 008ee558 f   libc:memmove.obj
 0001:004ea568       TrailDown2                 008ee568 f   libc:memmove.obj
 0001:004ea57c       TrailDown3                 008ee57c f   libc:memmove.obj
 0001:004e9fc2       _strtoxl                   008edfc2 f   libc:strtol.obj
 0001:004e9d86       _flsall                    008edd86 f   libc:fflush.obj
 0001:004e9c76       _IsRootUNCName             008edc76 f   libc:stati64.obj
 0001:004e979e       __abstract_cw              008ed79e f   libc:ieee87.obj
 0001:004e9830       __hw_cw                    008ed830 f   libc:ieee87.obj
 0001:004e98b9       __abstract_sw              008ed8b9 f   libc:ieee87.obj
 0001:004e95c9       _fast_error_exit           008ed5c9 f   libc:crt0.obj
 0001:004e9200       LeadUp1                    008ed200 f   libc:memcpy.obj
 0001:004e922c       LeadUp2                    008ed22c f   libc:memcpy.obj
 0001:004e9250       LeadUp3                    008ed250 f   libc:memcpy.obj
 0001:004e92cf       UnwindUp0                  008ed2cf f   libc:memcpy.obj
 0001:004e92bc       UnwindUp1                  008ed2bc f   libc:memcpy.obj
 0001:004e92b4       UnwindUp2                  008ed2b4 f   libc:memcpy.obj
 0001:004e92ac       UnwindUp3                  008ed2ac f   libc:memcpy.obj
 0001:004e92a4       UnwindUp4                  008ed2a4 f   libc:memcpy.obj
 0001:004e929c       UnwindUp5                  008ed29c f   libc:memcpy.obj
 0001:004e9294       UnwindUp6                  008ed294 f   libc:memcpy.obj
 0001:004e928c       UnwindUp7                  008ed28c f   libc:memcpy.obj
 0001:004e92e8       TrailUp0                   008ed2e8 f   libc:memcpy.obj
 0001:004e92f0       TrailUp1                   008ed2f0 f   libc:memcpy.obj
 0001:004e92fc       TrailUp2                   008ed2fc f   libc:memcpy.obj
 0001:004e9310       TrailUp3                   008ed310 f   libc:memcpy.obj
 0001:004e9388       LeadDown1                  008ed388 f   libc:memcpy.obj
 0001:004e93a8       LeadDown2                  008ed3a8 f   libc:memcpy.obj
 0001:004e93d0       LeadDown3                  008ed3d0 f   libc:memcpy.obj
 0001:004e9424       UnwindDown7                008ed424 f   libc:memcpy.obj
 0001:004e942c       UnwindDown6                008ed42c f   libc:memcpy.obj
 0001:004e9434       UnwindDown5                008ed434 f   libc:memcpy.obj
 0001:004e943c       UnwindDown4                008ed43c f   libc:memcpy.obj
 0001:004e9444       UnwindDown3                008ed444 f   libc:memcpy.obj
 0001:004e944c       UnwindDown2                008ed44c f   libc:memcpy.obj
 0001:004e9454       UnwindDown1                008ed454 f   libc:memcpy.obj
 0001:004e9467       UnwindDown0                008ed467 f   libc:memcpy.obj
 0001:004e9480       TrailDown0                 008ed480 f   libc:memcpy.obj
 0001:004e9488       TrailDown1                 008ed488 f   libc:memcpy.obj
 0001:004e9498       TrailDown2                 008ed498 f   libc:memcpy.obj
 0001:004e94ac       TrailDown3                 008ed4ac f   libc:memcpy.obj
